Archive member included to satisfy reference by file (symbol)

/opt/esp-open-sdk/sdk/lib/libmain.a(debug-vector.o)
                              (_DebugExceptionVector)
/opt/esp-open-sdk/sdk/lib/libmain.a(double-vector.o)
                              (_DoubleExceptionVector)
/opt/esp-open-sdk/sdk/lib/libmain.a(kernel-vector.o)
                              (_KernelExceptionVector)
/opt/esp-open-sdk/sdk/lib/libmain.a(nmi-vector.o)
                              (_NMIExceptionVector)
/opt/esp-open-sdk/sdk/lib/libmain.a(user-vector.o)
                              (_UserExceptionVector)
/opt/esp-open-sdk/sdk/lib/libmain.a(vector.o)
                              (call_user_start)
/opt/esp-open-sdk/sdk/lib/libmain.a(app_main.o)
                              /opt/esp-open-sdk/sdk/lib/libmain.a(nmi-vector.o) (NMI_Handler)
/opt/esp-open-sdk/sdk/lib/libmain.a(ets_timer.o)
                              /opt/esp-open-sdk/sdk/lib/libmain.a(app_main.o) (ets_timer_setfn)
/opt/esp-open-sdk/sdk/lib/libmain.a(mem_manager.o)
                              /opt/esp-open-sdk/sdk/lib/libmain.a(app_main.o) (vPortFree)
/opt/esp-open-sdk/sdk/lib/libmain.a(spi_flash.o)
                              /opt/esp-open-sdk/sdk/lib/libmain.a(app_main.o) (spi_flash_get_id)
/opt/esp-open-sdk/sdk/lib/libmain.a(user_interface.o)
                              /opt/esp-open-sdk/sdk/lib/libmain.a(app_main.o) (done_cb)
/opt/esp-open-sdk/sdk/lib/libmain.a(user_rf_cal_sector_set.o)
                              /opt/esp-open-sdk/sdk/lib/libmain.a(app_main.o) (user_rf_cal_sector_set)
/opt/esp-open-sdk/sdk/lib/libmain.a(eagle_lib.o)
                              /opt/esp-open-sdk/sdk/lib/libmain.a(user_interface.o) (ets_sprintf)
/opt/esp-open-sdk/sdk/lib/libmain.a(eagle_lwip_if.o)
                              /opt/esp-open-sdk/sdk/lib/libmain.a(user_interface.o) (hostname)
build/app_app.a(user_main.o)  /opt/esp-open-sdk/sdk/lib/libmain.a(app_main.o) (user_init)
build/app_app.a(esp_nano_httpd.o)
                              build/app_app.a(user_main.o) (resp_http_ok)
build/app_app.a(nano_httpd_wifi_util.o)
                              build/app_app.a(user_main.o) (wifi_callback)
/opt/esp-open-sdk/xtensa-lx106-elf/lib/gcc/xtensa-lx106-elf/4.8.5/../../../../xtensa-lx106-elf/lib/libc.a(lib_a-atoi.o)
                              build/app_app.a(user_main.o) (atoi)
/opt/esp-open-sdk/xtensa-lx106-elf/lib/gcc/xtensa-lx106-elf/4.8.5/../../../../xtensa-lx106-elf/lib/libc.a(lib_a-memcpy.o)
                              build/app_app.a(esp_nano_httpd.o) (memcpy)
/opt/esp-open-sdk/xtensa-lx106-elf/lib/gcc/xtensa-lx106-elf/4.8.5/../../../../xtensa-lx106-elf/lib/libc.a(lib_a-memset.o)
                              build/app_app.a(nano_httpd_wifi_util.o) (memset)
/opt/esp-open-sdk/xtensa-lx106-elf/lib/gcc/xtensa-lx106-elf/4.8.5/../../../../xtensa-lx106-elf/lib/libc.a(lib_a-strchr.o)
                              build/app_app.a(user_main.o) (strchr)
/opt/esp-open-sdk/xtensa-lx106-elf/lib/gcc/xtensa-lx106-elf/4.8.5/../../../../xtensa-lx106-elf/lib/libc.a(lib_a-strcmp.o)
                              build/app_app.a(esp_nano_httpd.o) (strcmp)
/opt/esp-open-sdk/xtensa-lx106-elf/lib/gcc/xtensa-lx106-elf/4.8.5/../../../../xtensa-lx106-elf/lib/libc.a(lib_a-strlen.o)
                              build/app_app.a(esp_nano_httpd.o) (strlen)
/opt/esp-open-sdk/xtensa-lx106-elf/lib/gcc/xtensa-lx106-elf/4.8.5/../../../../xtensa-lx106-elf/lib/libc.a(lib_a-strstr.o)
                              build/app_app.a(esp_nano_httpd.o) (strstr)
/opt/esp-open-sdk/xtensa-lx106-elf/lib/gcc/xtensa-lx106-elf/4.8.5/../../../../xtensa-lx106-elf/lib/libc.a(lib_a-strtok.o)
                              build/app_app.a(user_main.o) (strtok)
/opt/esp-open-sdk/xtensa-lx106-elf/lib/gcc/xtensa-lx106-elf/4.8.5/../../../../xtensa-lx106-elf/lib/libc.a(lib_a-strtok_r.o)
                              /opt/esp-open-sdk/xtensa-lx106-elf/lib/gcc/xtensa-lx106-elf/4.8.5/../../../../xtensa-lx106-elf/lib/libc.a(lib_a-strtok.o) (__strtok_r)
/opt/esp-open-sdk/xtensa-lx106-elf/lib/gcc/xtensa-lx106-elf/4.8.5/../../../../xtensa-lx106-elf/lib/libc.a(lib_a-strtol.o)
                              /opt/esp-open-sdk/xtensa-lx106-elf/lib/gcc/xtensa-lx106-elf/4.8.5/../../../../xtensa-lx106-elf/lib/libc.a(lib_a-atoi.o) (_strtol_r)
/opt/esp-open-sdk/xtensa-lx106-elf/lib/gcc/xtensa-lx106-elf/4.8.5/../../../../xtensa-lx106-elf/lib/libc.a(lib_a-ctype_.o)
                              /opt/esp-open-sdk/xtensa-lx106-elf/lib/gcc/xtensa-lx106-elf/4.8.5/../../../../xtensa-lx106-elf/lib/libc.a(lib_a-strtol.o) (__ctype_ptr__)
/opt/esp-open-sdk/xtensa-lx106-elf/lib/gcc/xtensa-lx106-elf/4.8.5/../../../../xtensa-lx106-elf/lib/libc.a(lib_a-impure.o)
                              /opt/esp-open-sdk/xtensa-lx106-elf/lib/gcc/xtensa-lx106-elf/4.8.5/../../../../xtensa-lx106-elf/lib/libc.a(lib_a-strtok.o) (_impure_ptr)
/opt/esp-open-sdk/xtensa-lx106-elf/xtensa-lx106-elf/sysroot/usr/lib/libhal.a(int_asm--set_intclear.o)
                              /opt/esp-open-sdk/sdk/lib/libmain.a(app_main.o) (xthal_set_intclear)
/opt/esp-open-sdk/sdk/lib/libpp.a(if_hwctrl.o)
                              /opt/esp-open-sdk/sdk/lib/libmain.a(user_interface.o) (ic_set_vif)
/opt/esp-open-sdk/sdk/lib/libpp.a(lmac.o)
                              /opt/esp-open-sdk/sdk/lib/libmain.a(app_main.o) (lmacInit)
/opt/esp-open-sdk/sdk/lib/libpp.a(pm.o)
                              /opt/esp-open-sdk/sdk/lib/libmain.a(user_interface.o) (pm_set_gpio_wakeup_pin)
/opt/esp-open-sdk/sdk/lib/libpp.a(pm_for_bcn_only_mode.o)
                              /opt/esp-open-sdk/sdk/lib/libpp.a(pm.o) (fpm_is_open)
/opt/esp-open-sdk/sdk/lib/libpp.a(pp.o)
                              /opt/esp-open-sdk/sdk/lib/libpp.a(pm.o) (pend_flag_noise_check)
/opt/esp-open-sdk/sdk/lib/libpp.a(rate_control.o)
                              /opt/esp-open-sdk/sdk/lib/libpp.a(lmac.o) (RC_SetBasicRate)
/opt/esp-open-sdk/sdk/lib/libpp.a(trc.o)
                              /opt/esp-open-sdk/sdk/lib/libmain.a(user_interface.o) (rc_set_rate_limit_id)
/opt/esp-open-sdk/sdk/lib/libpp.a(wdev.o)
                              /opt/esp-open-sdk/sdk/lib/libpp.a(pp.o) (wDevCtrl)
/opt/esp-open-sdk/sdk/lib/libpp.a(esf_buf.o)
                              /opt/esp-open-sdk/sdk/lib/libpp.a(wdev.o) (esf_rx_buf_alloc)
/opt/esp-open-sdk/sdk/lib/libphy.a(phy.o)
                              /opt/esp-open-sdk/sdk/lib/libmain.a(app_main.o) (phy_enable_agc)
/opt/esp-open-sdk/sdk/lib/libphy.a(phy_chip_v6_ana.o)
                              /opt/esp-open-sdk/sdk/lib/libmain.a(app_main.o) (chip_v6_set_chan_offset)
/opt/esp-open-sdk/sdk/lib/libphy.a(phy_chip_v6.o)
                              /opt/esp-open-sdk/sdk/lib/libpp.a(pm.o) (g_phyFuns)
/opt/esp-open-sdk/sdk/lib/libphy.a(phy_chip_v6_cal.o)
                              /opt/esp-open-sdk/sdk/lib/libphy.a(phy_chip_v6.o) (phy_tx_pwr_error)
/opt/esp-open-sdk/sdk/lib/libphy.a(phy_chip_v6_unused.o)
                              /opt/esp-open-sdk/sdk/lib/libphy.a(phy_chip_v6.o) (chip_v6_set_sense)
/opt/esp-open-sdk/sdk/lib/libphy.a(phy_sleep.o)
                              /opt/esp-open-sdk/sdk/lib/libpp.a(pm.o) (pm_usec2rtc)
/opt/esp-open-sdk/sdk/lib/libnet80211.a(ieee80211.o)
                              /opt/esp-open-sdk/sdk/lib/libmain.a(app_main.o) (g_ic)
/opt/esp-open-sdk/sdk/lib/libnet80211.a(ieee80211_crypto.o)
                              /opt/esp-open-sdk/sdk/lib/libnet80211.a(ieee80211.o) (ieee80211_crypto_attach)
/opt/esp-open-sdk/sdk/lib/libnet80211.a(ieee80211_ets.o)
                              /opt/esp-open-sdk/sdk/lib/libpp.a(pm.o) (ieee80211_getmgtframe)
/opt/esp-open-sdk/sdk/lib/libnet80211.a(ieee80211_hostap.o)
                              /opt/esp-open-sdk/sdk/lib/libmain.a(user_interface.o) (BcnEb_update)
/opt/esp-open-sdk/sdk/lib/libnet80211.a(ieee80211_ht.o)
                              /opt/esp-open-sdk/sdk/lib/libmain.a(user_interface.o) (ieee80211_ht_attach)
/opt/esp-open-sdk/sdk/lib/libnet80211.a(ieee80211_input.o)
                              /opt/esp-open-sdk/sdk/lib/libnet80211.a(ieee80211_hostap.o) (ieee80211_decap)
/opt/esp-open-sdk/sdk/lib/libnet80211.a(ieee80211_mesh_quick.o)
                              /opt/esp-open-sdk/sdk/lib/libnet80211.a(ieee80211_hostap.o) (ieee80211_mesh_quick_get)
/opt/esp-open-sdk/sdk/lib/libnet80211.a(ieee80211_output.o)
                              /opt/esp-open-sdk/sdk/lib/libmain.a(eagle_lwip_if.o) (ieee80211_output_pbuf)
/opt/esp-open-sdk/sdk/lib/libnet80211.a(ieee80211_phy.o)
                              /opt/esp-open-sdk/sdk/lib/libmain.a(app_main.o) (ieee80211_phy_init)
/opt/esp-open-sdk/sdk/lib/libnet80211.a(ieee80211_power.o)
                              /opt/esp-open-sdk/sdk/lib/libnet80211.a(ieee80211_hostap.o) (ieee80211_psq_init)
/opt/esp-open-sdk/sdk/lib/libnet80211.a(ieee80211_proto.o)
                              /opt/esp-open-sdk/sdk/lib/libnet80211.a(ieee80211.o) (ieee80211_proto_attach)
/opt/esp-open-sdk/sdk/lib/libnet80211.a(ieee80211_regdomain.o)
                              /opt/esp-open-sdk/sdk/lib/libnet80211.a(ieee80211_output.o) (ieee80211_alloc_countryie)
/opt/esp-open-sdk/sdk/lib/libnet80211.a(ieee80211_rfid.o)
                              /opt/esp-open-sdk/sdk/lib/libmain.a(user_interface.o) (ieee80211_rfid_locp_recv_open)
/opt/esp-open-sdk/sdk/lib/libnet80211.a(ieee80211_scan.o)
                              /opt/esp-open-sdk/sdk/lib/libpp.a(pp.o) (gScanStruct)
/opt/esp-open-sdk/sdk/lib/libnet80211.a(ieee80211_sta.o)
                              /opt/esp-open-sdk/sdk/lib/libmain.a(user_interface.o) (ieee80211_sta_new_state)
/opt/esp-open-sdk/sdk/lib/libnet80211.a(wl_chm.o)
                              /opt/esp-open-sdk/sdk/lib/libnet80211.a(ieee80211.o) (chm_init)
/opt/esp-open-sdk/sdk/lib/libnet80211.a(wl_cnx.o)
                              /opt/esp-open-sdk/sdk/lib/libmain.a(user_interface.o) (sta_con_timer)
/opt/esp-open-sdk/sdk/lib/libnet80211.a(ieee80211_action.o)
                              /opt/esp-open-sdk/sdk/lib/libnet80211.a(ieee80211_ht.o) (ieee80211_send_action_register)
/opt/esp-open-sdk/sdk/lib/libnet80211.a(ieee80211_action_vendor.o)
                              /opt/esp-open-sdk/sdk/lib/libnet80211.a(ieee80211.o) (ieee80211_action_vendor_spec_attach)
/opt/esp-open-sdk/sdk/lib/libnet80211.a(ieee80211_crypto_ccmp.o)
                              /opt/esp-open-sdk/sdk/lib/libnet80211.a(ieee80211_input.o) (ccmp)
/opt/esp-open-sdk/sdk/lib/libnet80211.a(ieee80211_ie_vendor.o)
                              /opt/esp-open-sdk/sdk/lib/libnet80211.a(ieee80211_mesh_quick.o) (ieee80211_add_ie_vendor_esp_mesh_assoc)
/opt/esp-open-sdk/sdk/lib/liblwip.a(dhcp.o)
                              /opt/esp-open-sdk/sdk/lib/libnet80211.a(wl_cnx.o) (dhcp_release)
/opt/esp-open-sdk/sdk/lib/liblwip.a(dhcpserver.o)
                              /opt/esp-open-sdk/sdk/lib/libmain.a(user_interface.o) (dhcps_start)
/opt/esp-open-sdk/sdk/lib/liblwip.a(dns.o)
                              /opt/esp-open-sdk/sdk/lib/liblwip.a(dhcp.o) (dns_setserver)
/opt/esp-open-sdk/sdk/lib/liblwip.a(espconn.o)
                              build/app_app.a(esp_nano_httpd.o) (espconn_create)
/opt/esp-open-sdk/sdk/lib/liblwip.a(espconn_tcp.o)
                              /opt/esp-open-sdk/sdk/lib/liblwip.a(espconn.o) (espconn_tcp_disconnect)
/opt/esp-open-sdk/sdk/lib/liblwip.a(espconn_udp.o)
                              /opt/esp-open-sdk/sdk/lib/liblwip.a(espconn.o) (espconn_udp_sent)
/opt/esp-open-sdk/sdk/lib/liblwip.a(etharp.o)
                              /opt/esp-open-sdk/sdk/lib/libmain.a(user_interface.o) (ethbroadcast)
/opt/esp-open-sdk/sdk/lib/liblwip.a(igmp.o)
                              /opt/esp-open-sdk/sdk/lib/liblwip.a(espconn_udp.o) (igmp_joingroup)
/opt/esp-open-sdk/sdk/lib/liblwip.a(inet_chksum.o)
                              /opt/esp-open-sdk/sdk/lib/liblwip.a(igmp.o) (inet_chksum)
/opt/esp-open-sdk/sdk/lib/liblwip.a(init.o)
                              /opt/esp-open-sdk/sdk/lib/libmain.a(app_main.o) (lwip_init)
/opt/esp-open-sdk/sdk/lib/liblwip.a(ip_addr.o)
                              /opt/esp-open-sdk/sdk/lib/liblwip.a(dhcp.o) (ip_addr_any)
/opt/esp-open-sdk/sdk/lib/liblwip.a(ip.o)
                              /opt/esp-open-sdk/sdk/lib/liblwip.a(etharp.o) (ip_input)
/opt/esp-open-sdk/sdk/lib/liblwip.a(memp.o)
                              /opt/esp-open-sdk/sdk/lib/liblwip.a(etharp.o) (memp_sizes)
/opt/esp-open-sdk/sdk/lib/liblwip.a(netif.o)
                              /opt/esp-open-sdk/sdk/lib/liblwip.a(dhcp.o) (netif_list)
/opt/esp-open-sdk/sdk/lib/liblwip.a(pbuf.o)
                              /opt/esp-open-sdk/sdk/lib/libnet80211.a(ieee80211_hostap.o) (pbuf_alloc)
/opt/esp-open-sdk/sdk/lib/liblwip.a(raw.o)
                              /opt/esp-open-sdk/sdk/lib/liblwip.a(ip.o) (raw_input)
/opt/esp-open-sdk/sdk/lib/liblwip.a(tcp_in.o)
                              /opt/esp-open-sdk/sdk/lib/liblwip.a(ip.o) (tcp_input)
/opt/esp-open-sdk/sdk/lib/liblwip.a(tcp.o)
                              /opt/esp-open-sdk/sdk/lib/liblwip.a(espconn_tcp.o) (tcp_active_pcbs)
/opt/esp-open-sdk/sdk/lib/liblwip.a(tcp_out.o)
                              /opt/esp-open-sdk/sdk/lib/liblwip.a(tcp.o) (tcp_send_fin)
/opt/esp-open-sdk/sdk/lib/liblwip.a(timers.o)
                              /opt/esp-open-sdk/sdk/lib/liblwip.a(tcp_in.o) (tcp_timer_needed)
/opt/esp-open-sdk/sdk/lib/liblwip.a(udp.o)
                              /opt/esp-open-sdk/sdk/lib/liblwip.a(ip.o) (udp_input)
/opt/esp-open-sdk/sdk/lib/liblwip.a(espconn_buf.o)
                              /opt/esp-open-sdk/sdk/lib/liblwip.a(espconn_tcp.o) (ringbuf_new)
/opt/esp-open-sdk/sdk/lib/liblwip.a(icmp.o)
                              /opt/esp-open-sdk/sdk/lib/liblwip.a(ip.o) (icmp_input)
/opt/esp-open-sdk/sdk/lib/libwpa.a(ap_config.o)
                              /opt/esp-open-sdk/sdk/lib/libnet80211.a(ieee80211_hostap.o) (hostapd_setup_wpa_psk)
/opt/esp-open-sdk/sdk/lib/libwpa.a(common.o)
                              /opt/esp-open-sdk/sdk/lib/libmain.a(user_interface.o) (hexstr2bin)
/opt/esp-open-sdk/sdk/lib/libwpa.a(os_xtensa.o)
                              /opt/esp-open-sdk/sdk/lib/libwpa.a(common.o) (os_get_time)
/opt/esp-open-sdk/sdk/lib/libwpa.a(wpa_auth.o)
                              /opt/esp-open-sdk/sdk/lib/libnet80211.a(ieee80211_hostap.o) (wpa_init)
/opt/esp-open-sdk/sdk/lib/libwpa.a(wpa_auth_ie.o)
                              /opt/esp-open-sdk/sdk/lib/libwpa.a(wpa_auth.o) (wpa_auth_gen_wpa_ie)
/opt/esp-open-sdk/sdk/lib/libwpa.a(wpa.o)
                              /opt/esp-open-sdk/sdk/lib/libnet80211.a(ieee80211_sta.o) (wpa_sm_rx_eapol)
/opt/esp-open-sdk/sdk/lib/libwpa.a(wpa_common.o)
                              /opt/esp-open-sdk/sdk/lib/libwpa.a(wpa_auth_ie.o) (wpa_parse_wpa_ie_rsn)
/opt/esp-open-sdk/sdk/lib/libwpa.a(wpa_debug.o)
                              /opt/esp-open-sdk/sdk/lib/libwpa.a(wpa_auth.o) (eloop_cancel_timeout)
/opt/esp-open-sdk/sdk/lib/libwpa.a(wpa_ie.o)
                              /opt/esp-open-sdk/sdk/lib/libnet80211.a(ieee80211_scan.o) (wpa_parse_wpa_ie)
/opt/esp-open-sdk/sdk/lib/libwpa.a(wpa_main.o)
                              /opt/esp-open-sdk/sdk/lib/libnet80211.a(wl_cnx.o) (ppInstallKey)
/opt/esp-open-sdk/sdk/lib/libwpa.a(wpas_glue.o)
                              /opt/esp-open-sdk/sdk/lib/libwpa.a(wpa.o) (wpa_sm_alloc_eapol)
/opt/esp-open-sdk/sdk/lib/libwpa.a(aes-wrap.o)
                              /opt/esp-open-sdk/sdk/lib/libwpa.a(wpa_auth.o) (aes_wrap)
/opt/esp-open-sdk/sdk/lib/libwpa.a(aes-internal-enc.o)
                              /opt/esp-open-sdk/sdk/lib/libwpa.a(aes-wrap.o) (aes_encrypt_init)
/opt/esp-open-sdk/sdk/lib/libwpa.a(aes-internal.o)
                              /opt/esp-open-sdk/sdk/lib/libwpa.a(aes-internal-enc.o) (rijndaelKeySetupEnc)
/opt/esp-open-sdk/sdk/lib/libjson.a(jsontree.o)
                              build/app_app.a(nano_httpd_wifi_util.o) (jsontree_write_atom)
/opt/esp-open-sdk/xtensa-lx106-elf/lib/gcc/xtensa-lx106-elf/4.8.5/../../../../xtensa-lx106-elf/lib/libc.a(lib_a-memchr.o)
                              /opt/esp-open-sdk/sdk/lib/liblwip.a(espconn_buf.o) (memchr)
/opt/esp-open-sdk/sdk/lib/libgcc.a(_modsi3.o)
                              /opt/esp-open-sdk/sdk/lib/libphy.a(phy_chip_v6.o) (__modsi3)
/opt/esp-open-sdk/sdk/lib/libgcc.a(_ashrdi3.o)
                              /opt/esp-open-sdk/sdk/lib/libphy.a(phy_chip_v6.o) (__ashrdi3)
/opt/esp-open-sdk/sdk/lib/libgcc.a(_mulsf3.o)
                              /opt/esp-open-sdk/sdk/lib/libphy.a(phy_chip_v6_ana.o) (__mulsf3)
/opt/esp-open-sdk/sdk/lib/libgcc.a(_divsf3.o)
                              /opt/esp-open-sdk/sdk/lib/libphy.a(phy_chip_v6_ana.o) (__divsf3)
/opt/esp-open-sdk/sdk/lib/libgcc.a(_fixsfsi.o)
                              /opt/esp-open-sdk/sdk/lib/libphy.a(phy_chip_v6.o) (__fixsfsi)
/opt/esp-open-sdk/sdk/lib/libnet80211.a(ieee80211_crypto_tkip.o)
                              /opt/esp-open-sdk/sdk/lib/libwpa.a(wpa_auth.o) (tkip)
/opt/esp-open-sdk/sdk/lib/libnet80211.a(ieee80211_crypto_wep.o)
                              /opt/esp-open-sdk/sdk/lib/libwpa.a(wpa_auth.o) (wep)

Memory Configuration

Name             Origin             Length             Attributes
dport0_0_seg     0x000000003ff00000 0x0000000000000010
dram0_0_seg      0x000000003ffe8000 0x0000000000014000
iram1_0_seg      0x0000000040100000 0x0000000000008000
irom0_0_seg      0x0000000040211000 0x000000000006b000
*default*        0x0000000000000000 0xffffffffffffffff

Linker script and memory map

START GROUP
LOAD /opt/esp-open-sdk/xtensa-lx106-elf/lib/gcc/xtensa-lx106-elf/4.8.5/../../../../xtensa-lx106-elf/lib/libc.a
LOAD /opt/esp-open-sdk/sdk/lib/libgcc.a
LOAD /opt/esp-open-sdk/xtensa-lx106-elf/xtensa-lx106-elf/sysroot/usr/lib/libhal.a
LOAD /opt/esp-open-sdk/sdk/lib/libpp.a
LOAD /opt/esp-open-sdk/sdk/lib/libphy.a
LOAD /opt/esp-open-sdk/sdk/lib/libnet80211.a
LOAD /opt/esp-open-sdk/sdk/lib/liblwip.a
LOAD /opt/esp-open-sdk/sdk/lib/libwpa.a
LOAD /opt/esp-open-sdk/sdk/lib/libmain.a
LOAD /opt/esp-open-sdk/sdk/lib/libjson.a
LOAD build/app_app.a
END GROUP
                [!provide]                        PROVIDE (_memmap_vecbase_reset, 0x40000000)
                0x0000000000000110                _memmap_cacheattr_wb_base = 0x110
                0x0000000000000110                _memmap_cacheattr_wt_base = 0x110
                0x0000000000000220                _memmap_cacheattr_bp_base = 0x220
                0x00000000fffff00f                _memmap_cacheattr_unused_mask = 0xfffff00f
                0x000000002222211f                _memmap_cacheattr_wb_trapnull = 0x2222211f
                0x000000002222211f                _memmap_cacheattr_wba_trapnull = 0x2222211f
                0x000000002222211f                _memmap_cacheattr_wbna_trapnull = 0x2222211f
                0x000000002222211f                _memmap_cacheattr_wt_trapnull = 0x2222211f
                0x000000002222222f                _memmap_cacheattr_bp_trapnull = 0x2222222f
                0x00000000fffff11f                _memmap_cacheattr_wb_strict = 0xfffff11f
                0x00000000fffff11f                _memmap_cacheattr_wt_strict = 0xfffff11f
                0x00000000fffff22f                _memmap_cacheattr_bp_strict = 0xfffff22f
                0x0000000022222112                _memmap_cacheattr_wb_allvalid = 0x22222112
                0x0000000022222112                _memmap_cacheattr_wt_allvalid = 0x22222112
                0x0000000022222222                _memmap_cacheattr_bp_allvalid = 0x22222222
                [!provide]                        PROVIDE (_memmap_cacheattr_reset, _memmap_cacheattr_wb_trapnull)

.dport0.rodata  0x000000003ff00000        0x0
                0x000000003ff00000                _dport0_rodata_start = ABSOLUTE (.)
 *(.dport0.rodata)
 *(.dport.rodata)
                0x000000003ff00000                _dport0_rodata_end = ABSOLUTE (.)

.dport0.literal
                0x000000003ff00000        0x0
                0x000000003ff00000                _dport0_literal_start = ABSOLUTE (.)
 *(.dport0.literal)
 *(.dport.literal)
                0x000000003ff00000                _dport0_literal_end = ABSOLUTE (.)

.dport0.data    0x000000003ff00000        0x0
                0x000000003ff00000                _dport0_data_start = ABSOLUTE (.)
 *(.dport0.data)
 *(.dport.data)
                0x000000003ff00000                _dport0_data_end = ABSOLUTE (.)

.data           0x000000003ffe8000     0x1e3c
                0x000000003ffe8000                _data_start = ABSOLUTE (.)
 *(.data)
 .data          0x000000003ffe8000        0x0 /opt/esp-open-sdk/sdk/lib/libmain.a(debug-vector.o)
 .data          0x000000003ffe8000        0x0 /opt/esp-open-sdk/sdk/lib/libmain.a(double-vector.o)
 .data          0x000000003ffe8000        0x0 /opt/esp-open-sdk/sdk/lib/libmain.a(kernel-vector.o)
 .data          0x000000003ffe8000        0x4 /opt/esp-open-sdk/sdk/lib/libmain.a(nmi-vector.o)
                0x000000003ffe8000                _Pri_3_HandlerAddress
 .data          0x000000003ffe8004        0x0 /opt/esp-open-sdk/sdk/lib/libmain.a(user-vector.o)
 .data          0x000000003ffe8004        0x0 /opt/esp-open-sdk/sdk/lib/libmain.a(vector.o)
 .data          0x000000003ffe8004        0x1 /opt/esp-open-sdk/sdk/lib/libmain.a(app_main.o)
 .data          0x000000003ffe8005        0x0 /opt/esp-open-sdk/sdk/lib/libmain.a(ets_timer.o)
 .data          0x000000003ffe8005        0x0 /opt/esp-open-sdk/sdk/lib/libmain.a(mem_manager.o)
 .data          0x000000003ffe8005        0x0 /opt/esp-open-sdk/sdk/lib/libmain.a(spi_flash.o)
 *fill*         0x000000003ffe8005        0x3 
 .data          0x000000003ffe8008        0x6 /opt/esp-open-sdk/sdk/lib/libmain.a(user_interface.o)
                0x000000003ffe8009                timer2_ms_flag
                0x000000003ffe800a                dhcps_flag
                0x000000003ffe800b                dhcpc_flag
                0x000000003ffe800d                reconnect_internal
 .data          0x000000003ffe800e        0x0 /opt/esp-open-sdk/sdk/lib/libmain.a(user_rf_cal_sector_set.o)
 .data          0x000000003ffe800e        0x0 /opt/esp-open-sdk/sdk/lib/libmain.a(eagle_lib.o)
 *fill*         0x000000003ffe800e        0x2 
 .data          0x000000003ffe8010        0x1 /opt/esp-open-sdk/sdk/lib/libmain.a(eagle_lwip_if.o)
                0x000000003ffe8010                default_hostname
 *fill*         0x000000003ffe8011        0x3 
 .data          0x000000003ffe8014     0x1642 build/app_app.a(user_main.o)
                0x000000003ffe8014                index_html_len
                0x000000003ffe8018                index_html
 .data          0x000000003ffe9656        0x0 build/app_app.a(esp_nano_httpd.o)
 *fill*         0x000000003ffe9656        0x2 
 .data          0x000000003ffe9658       0x4c build/app_app.a(nano_httpd_wifi_util.o)
 .data          0x000000003ffe96a4        0x0 /opt/esp-open-sdk/xtensa-lx106-elf/lib/gcc/xtensa-lx106-elf/4.8.5/../../../../xtensa-lx106-elf/lib/libc.a(lib_a-atoi.o)
 .data          0x000000003ffe96a4        0x0 /opt/esp-open-sdk/xtensa-lx106-elf/lib/gcc/xtensa-lx106-elf/4.8.5/../../../../xtensa-lx106-elf/lib/libc.a(lib_a-memcpy.o)
 .data          0x000000003ffe96a4        0x0 /opt/esp-open-sdk/xtensa-lx106-elf/lib/gcc/xtensa-lx106-elf/4.8.5/../../../../xtensa-lx106-elf/lib/libc.a(lib_a-memset.o)
 .data          0x000000003ffe96a4        0x0 /opt/esp-open-sdk/xtensa-lx106-elf/lib/gcc/xtensa-lx106-elf/4.8.5/../../../../xtensa-lx106-elf/lib/libc.a(lib_a-strchr.o)
 .data          0x000000003ffe96a4        0x0 /opt/esp-open-sdk/xtensa-lx106-elf/lib/gcc/xtensa-lx106-elf/4.8.5/../../../../xtensa-lx106-elf/lib/libc.a(lib_a-strcmp.o)
 .data          0x000000003ffe96a4        0x0 /opt/esp-open-sdk/xtensa-lx106-elf/lib/gcc/xtensa-lx106-elf/4.8.5/../../../../xtensa-lx106-elf/lib/libc.a(lib_a-strlen.o)
 .data          0x000000003ffe96a4        0x0 /opt/esp-open-sdk/xtensa-lx106-elf/lib/gcc/xtensa-lx106-elf/4.8.5/../../../../xtensa-lx106-elf/lib/libc.a(lib_a-strstr.o)
 .data          0x000000003ffe96a4        0x0 /opt/esp-open-sdk/xtensa-lx106-elf/lib/gcc/xtensa-lx106-elf/4.8.5/../../../../xtensa-lx106-elf/lib/libc.a(lib_a-strtok.o)
 .data          0x000000003ffe96a4        0x0 /opt/esp-open-sdk/xtensa-lx106-elf/lib/gcc/xtensa-lx106-elf/4.8.5/../../../../xtensa-lx106-elf/lib/libc.a(lib_a-strtok_r.o)
 .data          0x000000003ffe96a4        0x0 /opt/esp-open-sdk/xtensa-lx106-elf/lib/gcc/xtensa-lx106-elf/4.8.5/../../../../xtensa-lx106-elf/lib/libc.a(lib_a-strtol.o)
 .data          0x000000003ffe96a4        0x4 /opt/esp-open-sdk/xtensa-lx106-elf/lib/gcc/xtensa-lx106-elf/4.8.5/../../../../xtensa-lx106-elf/lib/libc.a(lib_a-ctype_.o)
                0x000000003ffe96a4                __ctype_ptr__
 .data          0x000000003ffe96a8      0x430 /opt/esp-open-sdk/xtensa-lx106-elf/lib/gcc/xtensa-lx106-elf/4.8.5/../../../../xtensa-lx106-elf/lib/libc.a(lib_a-impure.o)
                0x000000003ffe96a8                _impure_ptr
 .data          0x000000003ffe9ad8        0x0 /opt/esp-open-sdk/xtensa-lx106-elf/xtensa-lx106-elf/sysroot/usr/lib/libhal.a(int_asm--set_intclear.o)
 .data          0x000000003ffe9ad8        0x0 /opt/esp-open-sdk/sdk/lib/libpp.a(if_hwctrl.o)
 .data          0x000000003ffe9ad8        0x0 /opt/esp-open-sdk/sdk/lib/libpp.a(lmac.o)
 .data          0x000000003ffe9ad8        0x1 /opt/esp-open-sdk/sdk/lib/libpp.a(pm.o)
 *fill*         0x000000003ffe9ad9        0x3 
 .data          0x000000003ffe9adc        0x1 /opt/esp-open-sdk/sdk/lib/libpp.a(pm_for_bcn_only_mode.o)
 *fill*         0x000000003ffe9add        0x3 
 .data          0x000000003ffe9ae0       0x1c /opt/esp-open-sdk/sdk/lib/libpp.a(pp.o)
                0x000000003ffe9ae0                soft_wdt_interval
                0x000000003ffe9ae4                NoiseTimerInterval
                0x000000003ffe9aec                sleep_start_wait_time
                0x000000003ffe9af4                CanDoFreqCal
                0x000000003ffe9af8                tcb
 *fill*         0x000000003ffe9afc        0x4 
 .data          0x000000003ffe9b00       0x40 /opt/esp-open-sdk/sdk/lib/libpp.a(rate_control.o)
 .data          0x000000003ffe9b40      0x24c /opt/esp-open-sdk/sdk/lib/libpp.a(trc.o)
 .data          0x000000003ffe9d8c        0x8 /opt/esp-open-sdk/sdk/lib/libpp.a(wdev.o)
 .data          0x000000003ffe9d94        0x0 /opt/esp-open-sdk/sdk/lib/libpp.a(esf_buf.o)
 .data          0x000000003ffe9d94        0x0 /opt/esp-open-sdk/sdk/lib/libphy.a(phy.o)
 .data          0x000000003ffe9d94        0x0 /opt/esp-open-sdk/sdk/lib/libphy.a(phy_chip_v6_ana.o)
 *fill*         0x000000003ffe9d94        0xc 
 .data          0x000000003ffe9da0       0x53 /opt/esp-open-sdk/sdk/lib/libphy.a(phy_chip_v6.o)
                0x000000003ffe9da2                tx_rf_ana_gain
                0x000000003ffe9dd0                rx_gain_swp
                0x000000003ffe9df0                test_rffreq_txcap
 *fill*         0x000000003ffe9df3        0x1 
 .data          0x000000003ffe9df4        0x1 /opt/esp-open-sdk/sdk/lib/libphy.a(phy_chip_v6_cal.o)
                0x000000003ffe9df4                rfcal_bb_atten_init
 .data          0x000000003ffe9df5        0x0 /opt/esp-open-sdk/sdk/lib/libphy.a(phy_chip_v6_unused.o)
 *fill*         0x000000003ffe9df5        0x3 
 .data          0x000000003ffe9df8        0x4 /opt/esp-open-sdk/sdk/lib/libphy.a(phy_sleep.o)
                0x000000003ffe9df8                chip_version
 .data          0x000000003ffe9dfc        0x0 /opt/esp-open-sdk/sdk/lib/libnet80211.a(ieee80211.o)
 .data          0x000000003ffe9dfc        0x0 /opt/esp-open-sdk/sdk/lib/libnet80211.a(ieee80211_crypto.o)
 .data          0x000000003ffe9dfc        0x0 /opt/esp-open-sdk/sdk/lib/libnet80211.a(ieee80211_ets.o)
 .data          0x000000003ffe9dfc        0x1 /opt/esp-open-sdk/sdk/lib/libnet80211.a(ieee80211_hostap.o)
                0x000000003ffe9dfc                TmpSTAAPCloseAP
 .data          0x000000003ffe9dfd        0x0 /opt/esp-open-sdk/sdk/lib/libnet80211.a(ieee80211_ht.o)
 .data          0x000000003ffe9dfd        0x0 /opt/esp-open-sdk/sdk/lib/libnet80211.a(ieee80211_input.o)
 .data          0x000000003ffe9dfd        0x0 /opt/esp-open-sdk/sdk/lib/libnet80211.a(ieee80211_mesh_quick.o)
 .data          0x000000003ffe9dfd        0x0 /opt/esp-open-sdk/sdk/lib/libnet80211.a(ieee80211_output.o)
 .data          0x000000003ffe9dfd        0x0 /opt/esp-open-sdk/sdk/lib/libnet80211.a(ieee80211_phy.o)
 .data          0x000000003ffe9dfd        0x0 /opt/esp-open-sdk/sdk/lib/libnet80211.a(ieee80211_power.o)
 .data          0x000000003ffe9dfd        0x0 /opt/esp-open-sdk/sdk/lib/libnet80211.a(ieee80211_proto.o)
 .data          0x000000003ffe9dfd        0x0 /opt/esp-open-sdk/sdk/lib/libnet80211.a(ieee80211_regdomain.o)
 .data          0x000000003ffe9dfd        0x0 /opt/esp-open-sdk/sdk/lib/libnet80211.a(ieee80211_rfid.o)
 .data          0x000000003ffe9dfd        0x0 /opt/esp-open-sdk/sdk/lib/libnet80211.a(ieee80211_scan.o)
 .data          0x000000003ffe9dfd        0x0 /opt/esp-open-sdk/sdk/lib/libnet80211.a(ieee80211_sta.o)
 .data          0x000000003ffe9dfd        0x0 /opt/esp-open-sdk/sdk/lib/libnet80211.a(wl_chm.o)
 *fill*         0x000000003ffe9dfd        0x3 
 .data          0x000000003ffe9e00        0x1 /opt/esp-open-sdk/sdk/lib/libnet80211.a(wl_cnx.o)
 *fill*         0x000000003ffe9e01        0x7 
 .data          0x000000003ffe9e08       0x1c /opt/esp-open-sdk/sdk/lib/libnet80211.a(ieee80211_action.o)
 .data          0x000000003ffe9e24        0x0 /opt/esp-open-sdk/sdk/lib/libnet80211.a(ieee80211_action_vendor.o)
 .data          0x000000003ffe9e24        0x0 /opt/esp-open-sdk/sdk/lib/libnet80211.a(ieee80211_crypto_ccmp.o)
 .data          0x000000003ffe9e24        0x0 /opt/esp-open-sdk/sdk/lib/libnet80211.a(ieee80211_ie_vendor.o)
 .data          0x000000003ffe9e24        0x4 /opt/esp-open-sdk/sdk/lib/liblwip.a(dhcp.o)
 .data          0x000000003ffe9e28        0x5 /opt/esp-open-sdk/sdk/lib/liblwip.a(dhcpserver.o)
                0x000000003ffe9e28                dhcps_lease_time
 .data          0x000000003ffe9e2d        0x0 /opt/esp-open-sdk/sdk/lib/liblwip.a(dns.o)
 .data          0x000000003ffe9e2d        0x0 /opt/esp-open-sdk/sdk/lib/liblwip.a(espconn.o)
 .data          0x000000003ffe9e2d        0x0 /opt/esp-open-sdk/sdk/lib/liblwip.a(espconn_tcp.o)
 .data          0x000000003ffe9e2d        0x0 /opt/esp-open-sdk/sdk/lib/liblwip.a(espconn_udp.o)
 .data          0x000000003ffe9e2d        0x0 /opt/esp-open-sdk/sdk/lib/liblwip.a(etharp.o)
 .data          0x000000003ffe9e2d        0x0 /opt/esp-open-sdk/sdk/lib/liblwip.a(igmp.o)
 .data          0x000000003ffe9e2d        0x0 /opt/esp-open-sdk/sdk/lib/liblwip.a(inet_chksum.o)
 .data          0x000000003ffe9e2d        0x0 /opt/esp-open-sdk/sdk/lib/liblwip.a(init.o)
 .data          0x000000003ffe9e2d        0x0 /opt/esp-open-sdk/sdk/lib/liblwip.a(ip_addr.o)
 .data          0x000000003ffe9e2d        0x0 /opt/esp-open-sdk/sdk/lib/liblwip.a(ip.o)
 *fill*         0x000000003ffe9e2d        0x3 
 .data          0x000000003ffe9e30        0x2 /opt/esp-open-sdk/sdk/lib/liblwip.a(memp.o)
                0x000000003ffe9e30                memp_sizes_test
 .data          0x000000003ffe9e32        0x0 /opt/esp-open-sdk/sdk/lib/liblwip.a(netif.o)
 .data          0x000000003ffe9e32        0x0 /opt/esp-open-sdk/sdk/lib/liblwip.a(pbuf.o)
 .data          0x000000003ffe9e32        0x0 /opt/esp-open-sdk/sdk/lib/liblwip.a(raw.o)
 .data          0x000000003ffe9e32        0x0 /opt/esp-open-sdk/sdk/lib/liblwip.a(tcp_in.o)
 *fill*         0x000000003ffe9e32        0x2 
 .data          0x000000003ffe9e34        0x8 /opt/esp-open-sdk/sdk/lib/liblwip.a(tcp.o)
 .data          0x000000003ffe9e3c        0x0 /opt/esp-open-sdk/sdk/lib/liblwip.a(tcp_out.o)
 .data          0x000000003ffe9e3c        0x0 /opt/esp-open-sdk/sdk/lib/liblwip.a(timers.o)
 .data          0x000000003ffe9e3c        0x0 /opt/esp-open-sdk/sdk/lib/liblwip.a(udp.o)
 .data          0x000000003ffe9e3c        0x0 /opt/esp-open-sdk/sdk/lib/liblwip.a(espconn_buf.o)
 .data          0x000000003ffe9e3c        0x0 /opt/esp-open-sdk/sdk/lib/liblwip.a(icmp.o)
 .data          0x000000003ffe9e3c        0x0 /opt/esp-open-sdk/sdk/lib/libwpa.a(ap_config.o)
 .data          0x000000003ffe9e3c        0x0 /opt/esp-open-sdk/sdk/lib/libwpa.a(common.o)
 .data          0x000000003ffe9e3c        0x0 /opt/esp-open-sdk/sdk/lib/libwpa.a(os_xtensa.o)
 .data          0x000000003ffe9e3c        0x0 /opt/esp-open-sdk/sdk/lib/libwpa.a(wpa_auth.o)
 .data          0x000000003ffe9e3c        0x0 /opt/esp-open-sdk/sdk/lib/libwpa.a(wpa_auth_ie.o)
 .data          0x000000003ffe9e3c        0x0 /opt/esp-open-sdk/sdk/lib/libwpa.a(wpa.o)
 .data          0x000000003ffe9e3c        0x0 /opt/esp-open-sdk/sdk/lib/libwpa.a(wpa_common.o)
 .data          0x000000003ffe9e3c        0x0 /opt/esp-open-sdk/sdk/lib/libwpa.a(wpa_debug.o)
 .data          0x000000003ffe9e3c        0x0 /opt/esp-open-sdk/sdk/lib/libwpa.a(wpa_ie.o)
 .data          0x000000003ffe9e3c        0x0 /opt/esp-open-sdk/sdk/lib/libwpa.a(wpa_main.o)
 .data          0x000000003ffe9e3c        0x0 /opt/esp-open-sdk/sdk/lib/libwpa.a(wpas_glue.o)
 .data          0x000000003ffe9e3c        0x0 /opt/esp-open-sdk/sdk/lib/libwpa.a(aes-wrap.o)
 .data          0x000000003ffe9e3c        0x0 /opt/esp-open-sdk/sdk/lib/libwpa.a(aes-internal-enc.o)
 .data          0x000000003ffe9e3c        0x0 /opt/esp-open-sdk/sdk/lib/libwpa.a(aes-internal.o)
 .data          0x000000003ffe9e3c        0x0 /opt/esp-open-sdk/sdk/lib/libjson.a(jsontree.o)
 .data          0x000000003ffe9e3c        0x0 /opt/esp-open-sdk/xtensa-lx106-elf/lib/gcc/xtensa-lx106-elf/4.8.5/../../../../xtensa-lx106-elf/lib/libc.a(lib_a-memchr.o)
 .data          0x000000003ffe9e3c        0x0 /opt/esp-open-sdk/sdk/lib/libgcc.a(_modsi3.o)
 .data          0x000000003ffe9e3c        0x0 /opt/esp-open-sdk/sdk/lib/libgcc.a(_ashrdi3.o)
 .data          0x000000003ffe9e3c        0x0 /opt/esp-open-sdk/sdk/lib/libgcc.a(_mulsf3.o)
 .data          0x000000003ffe9e3c        0x0 /opt/esp-open-sdk/sdk/lib/libgcc.a(_divsf3.o)
 .data          0x000000003ffe9e3c        0x0 /opt/esp-open-sdk/sdk/lib/libgcc.a(_fixsfsi.o)
 .data          0x000000003ffe9e3c        0x0 /opt/esp-open-sdk/sdk/lib/libnet80211.a(ieee80211_crypto_tkip.o)
 .data          0x000000003ffe9e3c        0x0 /opt/esp-open-sdk/sdk/lib/libnet80211.a(ieee80211_crypto_wep.o)
 *(.data.*)
 *(.gnu.linkonce.d.*)
 *(.data1)
 *(.sdata)
 *(.sdata.*)
 *(.gnu.linkonce.s.*)
 *(.sdata2)
 *(.sdata2.*)
 *(.gnu.linkonce.s2.*)
 *(.jcr)
                0x000000003ffe9e3c                _data_end = ABSOLUTE (.)

.rodata         0x000000003ffe9e40      0x50c
                0x000000003ffe9e40                _rodata_start = ABSOLUTE (.)
 *(.sdk.version)
 .sdk.version   0x000000003ffe9e40        0xf /opt/esp-open-sdk/sdk/lib/libmain.a(app_main.o)
                0x000000003ffe9e40                SDK_VERSION
 *(.rodata)
 *fill*         0x000000003ffe9e4f        0x1 
 .rodata        0x000000003ffe9e50       0x30 build/app_app.a(user_main.o)
                0x000000003ffe9e50                url_cfg
 .rodata        0x000000003ffe9e80       0x2c build/app_app.a(nano_httpd_wifi_util.o)
 .rodata        0x000000003ffe9eac      0x101 /opt/esp-open-sdk/xtensa-lx106-elf/lib/gcc/xtensa-lx106-elf/4.8.5/../../../../xtensa-lx106-elf/lib/libc.a(lib_a-ctype_.o)
                0x000000003ffe9eac                _ctype_
 *fill*         0x000000003ffe9fad        0x3 
 .rodata        0x000000003ffe9fb0        0x4 /opt/esp-open-sdk/xtensa-lx106-elf/lib/gcc/xtensa-lx106-elf/4.8.5/../../../../xtensa-lx106-elf/lib/libc.a(lib_a-impure.o)
                0x000000003ffe9fb0                _global_impure_ptr
 .rodata        0x000000003ffe9fb4        0x4 /opt/esp-open-sdk/sdk/lib/libpp.a(pp.o)
 .rodata        0x000000003ffe9fb8        0x8 /opt/esp-open-sdk/sdk/lib/libphy.a(phy_chip_v6_ana.o)
 .rodata        0x000000003ffe9fc0        0x8 /opt/esp-open-sdk/sdk/lib/libphy.a(phy_chip_v6.o)
 .rodata        0x000000003ffe9fc8        0x8 /opt/esp-open-sdk/sdk/lib/libnet80211.a(ieee80211_hostap.o)
 .rodata        0x000000003ffe9fd0        0x9 /opt/esp-open-sdk/sdk/lib/libnet80211.a(ieee80211_output.o)
 *fill*         0x000000003ffe9fd9        0x3 
 .rodata        0x000000003ffe9fdc        0x6 /opt/esp-open-sdk/sdk/lib/liblwip.a(etharp.o)
                0x000000003ffe9fdc                ethbroadcast
 *fill*         0x000000003ffe9fe2        0xe 
 .rodata        0x000000003ffe9ff0       0x74 /opt/esp-open-sdk/sdk/lib/liblwip.a(espconn_buf.o)
 *(.rodata.*)
 .rodata.str1.4
                0x000000003ffea064        0xc /opt/esp-open-sdk/sdk/lib/libmain.a(app_main.o)
 .rodata.str1.4
                0x000000003ffea070        0x4 /opt/esp-open-sdk/sdk/lib/libmain.a(ets_timer.o)
                                          0xc (size before relaxing)
 .rodata.str1.4
                0x000000003ffea074       0x1a /opt/esp-open-sdk/sdk/lib/libmain.a(mem_manager.o)
 *fill*         0x000000003ffea08e        0x2 
 .rodata.str1.4
                0x000000003ffea090       0x3a build/app_app.a(user_main.o)
 *fill*         0x000000003ffea0ca        0x2 
 .rodata.str1.4
                0x000000003ffea0cc      0x12c build/app_app.a(esp_nano_httpd.o)
                                        0x130 (size before relaxing)
 .rodata.str1.4
                0x000000003ffea1f8      0x114 build/app_app.a(nano_httpd_wifi_util.o)
                                        0x134 (size before relaxing)
 .rodata.str1.1
                0x000000003ffea30c        0x2 /opt/esp-open-sdk/xtensa-lx106-elf/lib/gcc/xtensa-lx106-elf/4.8.5/../../../../xtensa-lx106-elf/lib/libc.a(lib_a-impure.o)
 *fill*         0x000000003ffea30e        0x2 
 .rodata.str1.4
                0x000000003ffea310        0x4 /opt/esp-open-sdk/sdk/lib/libpp.a(lmac.o)
                                          0xc (size before relaxing)
 .rodata.str1.4
                0x000000003ffea314        0x3 /opt/esp-open-sdk/sdk/lib/libpp.a(pm.o)
                                          0xb (size before relaxing)
 *fill*         0x000000003ffea317        0x1 
 .rodata.str1.4
                0x000000003ffea318        0x4 /opt/esp-open-sdk/sdk/lib/libpp.a(pm_for_bcn_only_mode.o)
                                          0xc (size before relaxing)
 .rodata.str1.4
                0x000000003ffea31c        0x8 /opt/esp-open-sdk/sdk/lib/libpp.a(pp.o)
                                         0x10 (size before relaxing)
 .rodata.str1.4
                0x000000003ffea324        0x4 /opt/esp-open-sdk/sdk/lib/libpp.a(wdev.o)
                                          0xc (size before relaxing)
 .rodata.str1.4
                0x000000003ffea328        0x3 /opt/esp-open-sdk/sdk/lib/libnet80211.a(ieee80211_hostap.o)
                                          0x8 (size before relaxing)
 *fill*         0x000000003ffea32b        0x1 
 .rodata.str1.4
                0x000000003ffea32c        0x7 /opt/esp-open-sdk/sdk/lib/libnet80211.a(ieee80211_mesh_quick.o)
 .rodata.str1.4
                0x000000003ffea333        0x4 /opt/esp-open-sdk/sdk/lib/libnet80211.a(ieee80211_sta.o)
 .rodata.str1.4
                0x000000003ffea333        0x4 /opt/esp-open-sdk/sdk/lib/libnet80211.a(ieee80211_action_vendor.o)
 .rodata.str1.4
                0x000000003ffea333        0x4 /opt/esp-open-sdk/sdk/lib/libnet80211.a(ieee80211_ie_vendor.o)
 .rodata.str1.4
                0x000000003ffea333        0x1 /opt/esp-open-sdk/sdk/lib/liblwip.a(espconn_tcp.o)
 *fill*         0x000000003ffea333        0x1 
 .rodata.str1.4
                0x000000003ffea334       0x10 /opt/esp-open-sdk/sdk/lib/libwpa.a(wpa_debug.o)
                                          0xd (size before relaxing)
 .rodata.str1.4
                0x000000003ffea344        0x1 /opt/esp-open-sdk/sdk/lib/libjson.a(jsontree.o)
 *(.gnu.linkonce.r.*)
 *(.rodata1)
                0x000000003ffea345                __XT_EXCEPTION_TABLE__ = ABSOLUTE (.)
 *(.xt_except_table)
 *(.gcc_except_table)
 *(.gnu.linkonce.e.*)
 *(.gnu.version_r)
 *(.eh_frame)
 *crtbegin.o(.ctors)
 *(EXCLUDE_FILE(*crtend.o) .ctors)
 *(SORT(.ctors.*))
 *(.ctors)
 *crtbegin.o(.dtors)
 *(EXCLUDE_FILE(*crtend.o) .dtors)
 *(SORT(.dtors.*))
 *(.dtors)
                0x000000003ffea345                __XT_EXCEPTION_DESCS__ = ABSOLUTE (.)
 *(.xt_except_desc)
 *(.gnu.linkonce.h.*)
                0x000000003ffea345                __XT_EXCEPTION_DESCS_END__ = ABSOLUTE (.)
 *(.xt_except_desc_end)
 *(.dynamic)
 *(.gnu.version_d)
                0x000000003ffea348                . = ALIGN (0x4)
                0x000000003ffea348                _bss_table_start = ABSOLUTE (.)
                0x000000003ffea344        0x4 LONG 0x3ffea350 _bss_start
                0x000000003ffea348        0x4 LONG 0x3fff06b8 _bss_end
                0x000000003ffea34c                _bss_table_end = ABSOLUTE (.)
                0x000000003ffea34c                _rodata_end = ABSOLUTE (.)

.bss            0x000000003ffea350     0x6368
                0x000000003ffea350                . = ALIGN (0x8)
                0x000000003ffea350                _bss_start = ABSOLUTE (.)
 *(.dynsbss)
 *(.sbss)
 *(.sbss.*)
 *(.gnu.linkonce.sb.*)
 *(.scommon)
 *(.sbss2)
 *(.sbss2.*)
 *(.gnu.linkonce.sb2.*)
 *(.dynbss)
 *(.bss)
 .bss           0x000000003ffea350        0x0 /opt/esp-open-sdk/sdk/lib/libmain.a(debug-vector.o)
 .bss           0x000000003ffea350        0x0 /opt/esp-open-sdk/sdk/lib/libmain.a(double-vector.o)
 .bss           0x000000003ffea350        0x0 /opt/esp-open-sdk/sdk/lib/libmain.a(kernel-vector.o)
 .bss           0x000000003ffea350      0x1c0 /opt/esp-open-sdk/sdk/lib/libmain.a(nmi-vector.o)
 .bss           0x000000003ffea510        0x0 /opt/esp-open-sdk/sdk/lib/libmain.a(user-vector.o)
 .bss           0x000000003ffea510        0x0 /opt/esp-open-sdk/sdk/lib/libmain.a(vector.o)
 .bss           0x000000003ffea510       0x45 /opt/esp-open-sdk/sdk/lib/libmain.a(app_main.o)
                0x000000003ffea514                info
                0x000000003ffea538                freq_trace_enable
                0x000000003ffea53a                lwip_timer_interval
                0x000000003ffea53c                check_timeouts_timer
                0x000000003ffea550                rf_cal_sec
                0x000000003ffea554                user_init_flag
 *fill*         0x000000003ffea555        0xb 
 .bss           0x000000003ffea560       0x30 /opt/esp-open-sdk/sdk/lib/libmain.a(ets_timer.o)
                0x000000003ffea560                dbg_timer_flag
                0x000000003ffea564                timer_list
                0x000000003ffea568                debug_timer
                0x000000003ffea56c                debug_timerfn
 .bss           0x000000003ffea590       0x3c /opt/esp-open-sdk/sdk/lib/libmain.a(mem_manager.o)
 .bss           0x000000003ffea5cc        0x4 /opt/esp-open-sdk/sdk/lib/libmain.a(spi_flash.o)
                0x000000003ffea5cc                flash_read
 .bss           0x000000003ffea5d0      0x242 /opt/esp-open-sdk/sdk/lib/libmain.a(user_interface.o)
                0x000000003ffea6c7                deep_sleep_flag
                0x000000003ffea6c8                cpu_overclock
                0x000000003ffea6cc                event_cb
                0x000000003ffea6d0                status_led_output_level
                0x000000003ffea6d4                done_cb
                0x000000003ffea6d8                rst_if
                0x000000003ffea6f4                default_interface
                0x000000003ffea6f5                OpmodChgIsOnGoing
                0x000000003ffea6f8                promiscuous_cb
                0x000000003ffea710                event_TaskQueue
 .bss           0x000000003ffea812        0x0 /opt/esp-open-sdk/sdk/lib/libmain.a(user_rf_cal_sector_set.o)
 .bss           0x000000003ffea812        0x0 /opt/esp-open-sdk/sdk/lib/libmain.a(eagle_lib.o)
 *fill*         0x000000003ffea812        0x2 
 .bss           0x000000003ffea814        0xc /opt/esp-open-sdk/sdk/lib/libmain.a(eagle_lwip_if.o)
                0x000000003ffea814                hostname
 .bss           0x000000003ffea820       0x14 build/app_app.a(user_main.o)
 .bss           0x000000003ffea834       0x28 build/app_app.a(esp_nano_httpd.o)
 .bss           0x000000003ffea85c       0x90 build/app_app.a(nano_httpd_wifi_util.o)
 .bss           0x000000003ffea8ec        0x0 /opt/esp-open-sdk/xtensa-lx106-elf/lib/gcc/xtensa-lx106-elf/4.8.5/../../../../xtensa-lx106-elf/lib/libc.a(lib_a-atoi.o)
 .bss           0x000000003ffea8ec        0x0 /opt/esp-open-sdk/xtensa-lx106-elf/lib/gcc/xtensa-lx106-elf/4.8.5/../../../../xtensa-lx106-elf/lib/libc.a(lib_a-memcpy.o)
 .bss           0x000000003ffea8ec        0x0 /opt/esp-open-sdk/xtensa-lx106-elf/lib/gcc/xtensa-lx106-elf/4.8.5/../../../../xtensa-lx106-elf/lib/libc.a(lib_a-memset.o)
 .bss           0x000000003ffea8ec        0x0 /opt/esp-open-sdk/xtensa-lx106-elf/lib/gcc/xtensa-lx106-elf/4.8.5/../../../../xtensa-lx106-elf/lib/libc.a(lib_a-strchr.o)
 .bss           0x000000003ffea8ec        0x0 /opt/esp-open-sdk/xtensa-lx106-elf/lib/gcc/xtensa-lx106-elf/4.8.5/../../../../xtensa-lx106-elf/lib/libc.a(lib_a-strcmp.o)
 .bss           0x000000003ffea8ec        0x0 /opt/esp-open-sdk/xtensa-lx106-elf/lib/gcc/xtensa-lx106-elf/4.8.5/../../../../xtensa-lx106-elf/lib/libc.a(lib_a-strlen.o)
 .bss           0x000000003ffea8ec        0x0 /opt/esp-open-sdk/xtensa-lx106-elf/lib/gcc/xtensa-lx106-elf/4.8.5/../../../../xtensa-lx106-elf/lib/libc.a(lib_a-strstr.o)
 .bss           0x000000003ffea8ec        0x0 /opt/esp-open-sdk/xtensa-lx106-elf/lib/gcc/xtensa-lx106-elf/4.8.5/../../../../xtensa-lx106-elf/lib/libc.a(lib_a-strtok.o)
 .bss           0x000000003ffea8ec        0x0 /opt/esp-open-sdk/xtensa-lx106-elf/lib/gcc/xtensa-lx106-elf/4.8.5/../../../../xtensa-lx106-elf/lib/libc.a(lib_a-strtok_r.o)
 .bss           0x000000003ffea8ec        0x0 /opt/esp-open-sdk/xtensa-lx106-elf/lib/gcc/xtensa-lx106-elf/4.8.5/../../../../xtensa-lx106-elf/lib/libc.a(lib_a-strtol.o)
 .bss           0x000000003ffea8ec        0x0 /opt/esp-open-sdk/xtensa-lx106-elf/lib/gcc/xtensa-lx106-elf/4.8.5/../../../../xtensa-lx106-elf/lib/libc.a(lib_a-ctype_.o)
 .bss           0x000000003ffea8ec        0x0 /opt/esp-open-sdk/xtensa-lx106-elf/lib/gcc/xtensa-lx106-elf/4.8.5/../../../../xtensa-lx106-elf/lib/libc.a(lib_a-impure.o)
 .bss           0x000000003ffea8ec        0x0 /opt/esp-open-sdk/xtensa-lx106-elf/xtensa-lx106-elf/sysroot/usr/lib/libhal.a(int_asm--set_intclear.o)
 *fill*         0x000000003ffea8ec        0x4 
 .bss           0x000000003ffea8f0       0x40 /opt/esp-open-sdk/sdk/lib/libpp.a(if_hwctrl.o)
                0x000000003ffea8f0                interface_mask
                0x000000003ffea910                if_ctrl
 .bss           0x000000003ffea930      0x150 /opt/esp-open-sdk/sdk/lib/libpp.a(lmac.o)
                0x000000003ffea934                lmacConfMib
                0x000000003ffea958                our_tx_eb
 .bss           0x000000003ffeaa80      0x12a /opt/esp-open-sdk/sdk/lib/libpp.a(pm.o)
                0x000000003ffeaa80                pmc
 *fill*         0x000000003ffeabaa        0x2 
 .bss           0x000000003ffeabac       0x38 /opt/esp-open-sdk/sdk/lib/libpp.a(pm_for_bcn_only_mode.o)
 *fill*         0x000000003ffeabe4        0xc 
 .bss           0x000000003ffeabf0      0x322 /opt/esp-open-sdk/sdk/lib/libpp.a(pp.o)
                0x000000003ffeac08                pend_flag_noise_check
                0x000000003ffeac10                pend_flag_periodic_cal
                0x000000003ffeac28                idle_timer_reopen_flag
                0x000000003ffeac2a                dbg_stop_sw_wdt
                0x000000003ffeac2b                dbg_stop_hw_wdt
                0x000000003ffeac2d                total_buffed_eb_num
                0x000000003ffeac30                HighestFreqOffsetInOneChk
                0x000000003ffeac32                LowestFreqOffsetInOneChk
                0x000000003ffeac34                DefFreqCalTimer
                0x000000003ffeac48                PktNumInOneChk
                0x000000003ffeadd0                buffed_eb_arr
 *fill*         0x000000003ffeaf12        0xe 
 .bss           0x000000003ffeaf20      0x100 /opt/esp-open-sdk/sdk/lib/libpp.a(rate_control.o)
 .bss           0x000000003ffeb020      0x46c /opt/esp-open-sdk/sdk/lib/libpp.a(trc.o)
 *fill*         0x000000003ffeb48c        0x4 
 .bss           0x000000003ffeb490     0x2f88 /opt/esp-open-sdk/sdk/lib/libpp.a(wdev.o)
                0x000000003ffeb490                wDevCtrl
                0x000000003ffeb638                WdevTimOffSet
 *fill*         0x000000003ffee418        0x8 
 .bss           0x000000003ffee420      0xaa4 /opt/esp-open-sdk/sdk/lib/libpp.a(esf_buf.o)
 .bss           0x000000003ffeeec4        0x4 /opt/esp-open-sdk/sdk/lib/libphy.a(phy.o)
 .bss           0x000000003ffeeec8        0x2 /opt/esp-open-sdk/sdk/lib/libphy.a(phy_chip_v6_ana.o)
                0x000000003ffeeec8                tout_dis_txpwr_track
                0x000000003ffeeec9                sleep_mode_flag
 *fill*         0x000000003ffeeeca        0x6 
 .bss           0x000000003ffeeed0      0x153 /opt/esp-open-sdk/sdk/lib/libphy.a(phy_chip_v6.o)
                0x000000003ffeeed0                g_phyFuns
                0x000000003ffeeed4                rxiq_compute_num
                0x000000003ffeeed8                rx_table_renew_en
                0x000000003ffeeedc                check_result
                0x000000003ffeeee0                chip6_sleep_params
                0x000000003ffeef74                chip6_phy_init_ctrl
                0x000000003ffeefe8                phy_freq_offset
                0x000000003ffeefea                do_pwctrl_flag
                0x000000003ffeefeb                txbk_dpdby_flag
                0x000000003ffeefed                sw_scan_mode
                0x000000003ffeefee                rxmax_ext_level
                0x000000003ffeeff0                phy_rx_gain_dc_table
                0x000000003ffef004                periodic_cal_flag
                0x000000003ffef005                bbpll_cal_flag
                0x000000003ffef006                phy_in_most_power
                0x000000003ffef007                init_rf_no_cal
                0x000000003ffef008                test_print_time
                0x000000003ffef00c                phy_in_vdd33_offset
                0x000000003ffef00d                phy_set_most_tpw_disbg
                0x000000003ffef00e                phy_set_most_tpw_index
                0x000000003ffef010                adc_rand_noise
                0x000000003ffef014                phy_rx_gain_dc_flag
                0x000000003ffef015                dpd_bypass_original
                0x000000003ffef016                phy_txpwr_diff_flash
                0x000000003ffef018                noise_array
 *fill*         0x000000003ffef023        0x1 
 .bss           0x000000003ffef024        0x9 /opt/esp-open-sdk/sdk/lib/libphy.a(phy_chip_v6_cal.o)
                0x000000003ffef024                phy_tx_power_out
                0x000000003ffef026                phy_tx_pwr_error
                0x000000003ffef028                tx_pwctrl_track_num
                0x000000003ffef029                rxiq_cover_fail_num
                0x000000003ffef02a                phy_meas_freq_offset
                0x000000003ffef02c                tx_pwctrl_pk_num
 .bss           0x000000003ffef02d        0x0 /opt/esp-open-sdk/sdk/lib/libphy.a(phy_chip_v6_unused.o)
 *fill*         0x000000003ffef02d        0x3 
 .bss           0x000000003ffef030        0x7 /opt/esp-open-sdk/sdk/lib/libphy.a(phy_sleep.o)
                0x000000003ffef030                periodic_cal_sat
                0x000000003ffef032                lslp_mem_opt_8266
                0x000000003ffef034                software_slp_reject
                0x000000003ffef035                SDIO_slp_reject
                0x000000003ffef036                hardware_reject
 *fill*         0x000000003ffef037        0x1 
 .bss           0x000000003ffef038      0x6a8 /opt/esp-open-sdk/sdk/lib/libnet80211.a(ieee80211.o)
                0x000000003ffef038                g_ic
 .bss           0x000000003ffef6e0        0x0 /opt/esp-open-sdk/sdk/lib/libnet80211.a(ieee80211_crypto.o)
 .bss           0x000000003ffef6e0        0x0 /opt/esp-open-sdk/sdk/lib/libnet80211.a(ieee80211_ets.o)
 .bss           0x000000003ffef6e0       0x54 /opt/esp-open-sdk/sdk/lib/libnet80211.a(ieee80211_hostap.o)
                0x000000003ffef6e0                BcnEb_update
                0x000000003ffef6ed                BcnWithMcastSendStart
                0x000000003ffef6ee                BcnWithMcastSendCnt
                0x000000003ffef708                PendFreeBcnEb
                0x000000003ffef70c                ApFreqCalTimer
                0x000000003ffef720                APRecvBcnStartTick
 .bss           0x000000003ffef734        0x0 /opt/esp-open-sdk/sdk/lib/libnet80211.a(ieee80211_ht.o)
 .bss           0x000000003ffef734        0x0 /opt/esp-open-sdk/sdk/lib/libnet80211.a(ieee80211_input.o)
 .bss           0x000000003ffef734        0x0 /opt/esp-open-sdk/sdk/lib/libnet80211.a(ieee80211_mesh_quick.o)
 .bss           0x000000003ffef734        0x0 /opt/esp-open-sdk/sdk/lib/libnet80211.a(ieee80211_output.o)
 .bss           0x000000003ffef734        0x0 /opt/esp-open-sdk/sdk/lib/libnet80211.a(ieee80211_phy.o)
 .bss           0x000000003ffef734        0x0 /opt/esp-open-sdk/sdk/lib/libnet80211.a(ieee80211_power.o)
 .bss           0x000000003ffef734        0x0 /opt/esp-open-sdk/sdk/lib/libnet80211.a(ieee80211_proto.o)
 .bss           0x000000003ffef734        0x0 /opt/esp-open-sdk/sdk/lib/libnet80211.a(ieee80211_regdomain.o)
 .bss           0x000000003ffef734        0x0 /opt/esp-open-sdk/sdk/lib/libnet80211.a(ieee80211_rfid.o)
 .bss           0x000000003ffef734       0xc8 /opt/esp-open-sdk/sdk/lib/libnet80211.a(ieee80211_scan.o)
                0x000000003ffef734                gScanStruct
                0x000000003ffef7e0                connect_scan_flag
                0x000000003ffef7e1                FreqCalCntForScan
                0x000000003ffef7e2                TestStaFreqCalValInput
                0x000000003ffef7e4                auth_type
                0x000000003ffef7e6                scannum
 *fill*         0x000000003ffef7fc        0x4 
 .bss           0x000000003ffef800       0x28 /opt/esp-open-sdk/sdk/lib/libnet80211.a(ieee80211_sta.o)
 .bss           0x000000003ffef828       0x3c /opt/esp-open-sdk/sdk/lib/libnet80211.a(wl_chm.o)
 *fill*         0x000000003ffef864        0x4 
 .bss           0x000000003ffef868      0x394 /opt/esp-open-sdk/sdk/lib/libnet80211.a(wl_cnx.o)
                0x000000003ffefbc8                sta_con_timer
                0x000000003ffefbdc                backup_ni_connect_status
                0x000000003ffefbe0                g_cnx_probe_rc_list_cb
                0x000000003ffefbe4                reconnect_flag
                0x000000003ffefbe5                no_ap_found_index
 .bss           0x000000003ffefbfc        0x0 /opt/esp-open-sdk/sdk/lib/libnet80211.a(ieee80211_action.o)
 *fill*         0x000000003ffefbfc        0x4 
 .bss           0x000000003ffefc00       0x18 /opt/esp-open-sdk/sdk/lib/libnet80211.a(ieee80211_action_vendor.o)
 .bss           0x000000003ffefc18        0x0 /opt/esp-open-sdk/sdk/lib/libnet80211.a(ieee80211_crypto_ccmp.o)
 .bss           0x000000003ffefc18        0x0 /opt/esp-open-sdk/sdk/lib/libnet80211.a(ieee80211_ie_vendor.o)
 *fill*         0x000000003ffefc18        0x8 
 .bss           0x000000003ffefc20       0x38 /opt/esp-open-sdk/sdk/lib/liblwip.a(dhcp.o)
                0x000000003ffefc20                dhcp_rx_options_given
                0x000000003ffefc30                dhcp_rx_options_val
 .bss           0x000000003ffefc58       0x24 /opt/esp-open-sdk/sdk/lib/liblwip.a(dhcpserver.o)
 *fill*         0x000000003ffefc7c        0x4 
 .bss           0x000000003ffefc80      0x480 /opt/esp-open-sdk/sdk/lib/liblwip.a(dns.o)
 .bss           0x000000003fff0100      0x104 /opt/esp-open-sdk/sdk/lib/liblwip.a(espconn.o)
                0x000000003fff0100                plink_active
                0x000000003fff0104                pserver_list
                0x000000003fff0110                premot
                0x000000003fff01d0                pktinfo
 *fill*         0x000000003fff0204        0xc 
 .bss           0x000000003fff0210       0x78 /opt/esp-open-sdk/sdk/lib/liblwip.a(espconn_tcp.o)
                0x000000003fff0210                espconn_TaskQueue
 .bss           0x000000003fff0288        0x0 /opt/esp-open-sdk/sdk/lib/liblwip.a(espconn_udp.o)
 *fill*         0x000000003fff0288        0x8 
 .bss           0x000000003fff0290      0x100 /opt/esp-open-sdk/sdk/lib/liblwip.a(etharp.o)
                0x000000003fff0294                ethzero
 .bss           0x000000003fff0390        0xc /opt/esp-open-sdk/sdk/lib/liblwip.a(igmp.o)
 .bss           0x000000003fff039c        0x0 /opt/esp-open-sdk/sdk/lib/liblwip.a(inet_chksum.o)
 .bss           0x000000003fff039c        0x0 /opt/esp-open-sdk/sdk/lib/liblwip.a(init.o)
 *fill*         0x000000003fff039c        0x4 
 .bss           0x000000003fff03a0       0x10 /opt/esp-open-sdk/sdk/lib/liblwip.a(ip_addr.o)
 .bss           0x000000003fff03b0       0x12 /opt/esp-open-sdk/sdk/lib/liblwip.a(ip.o)
                0x000000003fff03b0                current_iphdr_dest
                0x000000003fff03b4                current_iphdr_src
                0x000000003fff03b8                current_netif
                0x000000003fff03bc                current_header
 .bss           0x000000003fff03c2        0x0 /opt/esp-open-sdk/sdk/lib/liblwip.a(memp.o)
 *fill*         0x000000003fff03c2        0x2 
 .bss           0x000000003fff03c4        0x9 /opt/esp-open-sdk/sdk/lib/liblwip.a(netif.o)
                0x000000003fff03c4                netif_list
                0x000000003fff03c8                netif_default
 .bss           0x000000003fff03cd        0x0 /opt/esp-open-sdk/sdk/lib/liblwip.a(pbuf.o)
 *fill*         0x000000003fff03cd        0x3 
 .bss           0x000000003fff03d0        0x4 /opt/esp-open-sdk/sdk/lib/liblwip.a(raw.o)
 .bss           0x000000003fff03d4       0x34 /opt/esp-open-sdk/sdk/lib/liblwip.a(tcp_in.o)
                0x000000003fff0404                tcp_input_pcb
 .bss           0x000000003fff0408       0x1c /opt/esp-open-sdk/sdk/lib/liblwip.a(tcp.o)
                0x000000003fff040c                tcp_active_pcbs
                0x000000003fff0410                tcp_tmp_pcb
                0x000000003fff0414                tcp_tw_pcbs
                0x000000003fff0418                tcp_bound_pcbs
                0x000000003fff041c                tcp_listen_pcbs
                0x000000003fff0420                tcp_ticks
 .bss           0x000000003fff0424        0x0 /opt/esp-open-sdk/sdk/lib/liblwip.a(tcp_out.o)
 .bss           0x000000003fff0424        0xc /opt/esp-open-sdk/sdk/lib/liblwip.a(timers.o)
 .bss           0x000000003fff0430        0x4 /opt/esp-open-sdk/sdk/lib/liblwip.a(udp.o)
                0x000000003fff0430                udp_pcbs
 .bss           0x000000003fff0434        0x0 /opt/esp-open-sdk/sdk/lib/liblwip.a(espconn_buf.o)
 .bss           0x000000003fff0434        0x0 /opt/esp-open-sdk/sdk/lib/liblwip.a(icmp.o)
 .bss           0x000000003fff0434        0x0 /opt/esp-open-sdk/sdk/lib/libwpa.a(ap_config.o)
 .bss           0x000000003fff0434        0x0 /opt/esp-open-sdk/sdk/lib/libwpa.a(common.o)
 .bss           0x000000003fff0434        0x0 /opt/esp-open-sdk/sdk/lib/libwpa.a(os_xtensa.o)
 .bss           0x000000003fff0434        0x0 /opt/esp-open-sdk/sdk/lib/libwpa.a(wpa_auth.o)
 .bss           0x000000003fff0434        0x0 /opt/esp-open-sdk/sdk/lib/libwpa.a(wpa_auth_ie.o)
 *fill*         0x000000003fff0434        0xc 
 .bss           0x000000003fff0440      0x26a /opt/esp-open-sdk/sdk/lib/libwpa.a(wpa.o)
 .bss           0x000000003fff06aa        0x0 /opt/esp-open-sdk/sdk/lib/libwpa.a(wpa_common.o)
 .bss           0x000000003fff06aa        0x0 /opt/esp-open-sdk/sdk/lib/libwpa.a(wpa_debug.o)
 .bss           0x000000003fff06aa        0x0 /opt/esp-open-sdk/sdk/lib/libwpa.a(wpa_ie.o)
 .bss           0x000000003fff06aa        0x0 /opt/esp-open-sdk/sdk/lib/libwpa.a(wpa_main.o)
 .bss           0x000000003fff06aa        0x0 /opt/esp-open-sdk/sdk/lib/libwpa.a(wpas_glue.o)
 .bss           0x000000003fff06aa        0x0 /opt/esp-open-sdk/sdk/lib/libwpa.a(aes-wrap.o)
 .bss           0x000000003fff06aa        0x0 /opt/esp-open-sdk/sdk/lib/libwpa.a(aes-internal-enc.o)
 .bss           0x000000003fff06aa        0x0 /opt/esp-open-sdk/sdk/lib/libwpa.a(aes-internal.o)
 .bss           0x000000003fff06aa        0x0 /opt/esp-open-sdk/sdk/lib/libjson.a(jsontree.o)
 .bss           0x000000003fff06aa        0x0 /opt/esp-open-sdk/xtensa-lx106-elf/lib/gcc/xtensa-lx106-elf/4.8.5/../../../../xtensa-lx106-elf/lib/libc.a(lib_a-memchr.o)
 .bss           0x000000003fff06aa        0x0 /opt/esp-open-sdk/sdk/lib/libgcc.a(_modsi3.o)
 .bss           0x000000003fff06aa        0x0 /opt/esp-open-sdk/sdk/lib/libgcc.a(_ashrdi3.o)
 .bss           0x000000003fff06aa        0x0 /opt/esp-open-sdk/sdk/lib/libgcc.a(_mulsf3.o)
 .bss           0x000000003fff06aa        0x0 /opt/esp-open-sdk/sdk/lib/libgcc.a(_divsf3.o)
 .bss           0x000000003fff06aa        0x0 /opt/esp-open-sdk/sdk/lib/libgcc.a(_fixsfsi.o)
 *fill*         0x000000003fff06aa        0x6 
 .bss           0x000000003fff06b0        0x8 /opt/esp-open-sdk/sdk/lib/libnet80211.a(ieee80211_crypto_tkip.o)
 .bss           0x000000003fff06b8        0x0 /opt/esp-open-sdk/sdk/lib/libnet80211.a(ieee80211_crypto_wep.o)
 *(.bss.*)
 *(.gnu.linkonce.b.*)
 *(COMMON)
                0x000000003fff06b8                . = ALIGN (0x8)
                0x000000003fff06b8                _bss_end = ABSOLUTE (.)
                0x000000003fff06b8                _heap_start = ABSOLUTE (.)

.irom0.text     0x0000000040211000    0x303f4
                0x0000000040211000                _irom0_text_start = ABSOLUTE (.)
 *libmbedtls.a:(.literal .text .literal.* .text.*)
 *(.irom0.literal .irom.literal .irom.text.literal .irom0.text .irom.text)
 .irom0.text    0x0000000040211000      0xce5 /opt/esp-open-sdk/sdk/lib/libmain.a(app_main.o)
                                        0xf3d (size before relaxing)
                0x00000000402112d4                wdt_init
                0x000000004021137c                user_uart_wait_tx_fifo_empty
                0x0000000040211630                user_rf_pre_init
                0x0000000040211638                system_phy_freq_trace_enable
                0x0000000040211650                flash_data_check
 *fill*         0x0000000040211ce5        0x3 
 .irom0.text    0x0000000040211ce8      0x186 /opt/esp-open-sdk/sdk/lib/libmain.a(ets_timer.o)
                                        0x1b2 (size before relaxing)
                0x0000000040211cf0                ets_timer_done
                0x0000000040211d3c                ets_timer_handler_isr
                0x0000000040211e0c                ets_timer_init
 *fill*         0x0000000040211e6e        0x2 
 .irom0.text    0x0000000040211e70       0xf0 /opt/esp-open-sdk/sdk/lib/libmain.a(mem_manager.o)
                                         0xf8 (size before relaxing)
                0x0000000040211e70                check_memleak_debug_enable
                0x0000000040211ee0                xPortGetFreeHeapSize
                0x0000000040211ee8                vPortInitialiseBlocks
 .irom0.text    0x0000000040211f60        0xb /opt/esp-open-sdk/sdk/lib/libmain.a(spi_flash.o)
                0x0000000040211f64                spi_flash_set_read_func
 *fill*         0x0000000040211f6b        0x1 
 .irom0.text    0x0000000040211f6c     0x3d2d /opt/esp-open-sdk/sdk/lib/libmain.a(user_interface.o)
                                       0x48dd (size before relaxing)
                0x0000000040211f70                system_set_os_print
                0x0000000040211f80                system_get_os_print
                0x0000000040212148                system_pp_recycle_rx_pkt
                0x0000000040212164                system_adc_read
                0x00000000402121a4                system_adc_read_fast
                0x0000000040212204                system_get_vdd33
                0x0000000040212230                system_restart_hook
                0x0000000040212248                system_restart_local
                0x0000000040212328                system_restart
                0x0000000040212388                system_restore
                0x00000000402123f0                system_get_flash_size_map
                0x0000000040212410                system_get_boot_version
                0x0000000040212448                system_get_test_result
                0x0000000040212470                system_get_userbin_addr
                0x0000000040212508                system_get_boot_mode
                0x0000000040212538                system_restart_enhance
                0x00000000402126e4                system_upgrade_userbin_set
                0x0000000040212730                system_upgrade_userbin_check
                0x0000000040212770                system_upgrade_flag_set
                0x0000000040212784                system_upgrade_flag_check
                0x00000000402127ac                system_upgrade_reboot
                0x000000004021290c                system_deep_sleep_instant
                0x0000000040212aa4                system_deep_sleep
                0x0000000040212b04                system_deep_sleep_set_option
                0x0000000040212b20                system_phy_temperature_alert
                0x0000000040212b34                system_phy_set_max_tpw
                0x0000000040212b48                system_phy_set_tpw_via_vdd33
                0x0000000040212b5c                system_phy_set_rfoption
                0x0000000040212b70                system_phy_set_powerup_option
                0x0000000040212b88                system_update_cpu_freq
                0x0000000040212be4                system_get_cpu_freq
                0x0000000040212bfc                system_overclock
                0x0000000040212c28                system_restoreclock
                0x0000000040212c58                system_timer_reinit
                0x0000000040212c70                system_relative_time
                0x0000000040212c94                system_station_got_ip_set
                0x0000000040212dc0                system_print_meminfo
                0x0000000040212e20                system_get_free_heap_size
                0x0000000040212e34                system_get_chip_id
                0x0000000040212e58                system_rtc_clock_cali_proc
                0x0000000040212e6c                system_get_rtc_time
                0x0000000040212e80                system_mktime
                0x0000000040212f50                system_init_done_cb
                0x0000000040212f58                system_get_rst_info
                0x0000000040212f60                system_get_data_of_array_8
                0x0000000040212f84                system_get_data_of_array_16
                0x0000000040212fac                system_get_string_from_flash
                0x0000000040213018                wifi_softap_dhcps_start
                0x0000000040213060                wifi_softap_dhcps_stop
                0x00000000402130a0                wifi_softap_dhcps_status
                0x00000000402130a8                wifi_station_dhcpc_start
                0x0000000040213100                wifi_station_dhcpc_stop
                0x0000000040213140                wifi_station_dhcpc_event
                0x00000000402131b4                wifi_station_dhcpc_set_maxtry
                0x00000000402131c4                wifi_station_dhcpc_status
                0x0000000040213244                wifi_get_opmode
                0x0000000040213258                wifi_get_opmode_default
                0x00000000402132d4                wifi_get_broadcast_if
                0x0000000040213310                wifi_set_broadcast_if
                0x000000004021348c                wifi_set_opmode
                0x00000000402134a0                wifi_set_opmode_current
                0x00000000402134b4                system_get_checksum
                0x00000000402134fc                wifi_param_save_protect_with_check
                0x00000000402135bc                system_param_save_with_protect
                0x0000000040213670                system_save_sys_param
                0x000000004021369c                system_param_load
                0x00000000402137d8                wifi_station_get_config
                0x00000000402137ec                wifi_station_get_config_default
                0x000000004021380c                wifi_station_get_ap_info
                0x00000000402138c4                wifi_station_ap_number_set
                0x0000000040213d7c                wifi_station_set_config
                0x0000000040213d94                wifi_station_set_config_current
                0x0000000040213dac                wifi_station_restore_config
                0x0000000040213dc4                wifi_station_get_current_ap_id
                0x0000000040213dd8                wifi_station_ap_check
                0x0000000040213e28                wifi_station_ap_change
                0x0000000040213f40                wifi_station_scan
                0x0000000040213f8c                wifi_station_get_auto_connect
                0x0000000040213fac                wifi_station_set_auto_connect
                0x0000000040214064                wifi_station_save_pmk2cache
                0x0000000040214194                wifi_station_save_bssid
                0x0000000040214234                wifi_station_connect
                0x00000000402142c8                wifi_station_disconnect
                0x0000000040214388                wifi_station_get_connect_status
                0x00000000402143b8                wifi_station_set_reconnect_policy
                0x00000000402143d0                wifi_station_get_reconnect_policy
                0x00000000402143d8                wifi_station_get_rssi
                0x0000000040214428                wifi_station_set_default_hostname
                0x0000000040214490                wifi_station_get_hostname
                0x00000000402144c0                wifi_station_set_hostname
                0x0000000040214560                wifi_softap_cacl_mac
                0x00000000402145d0                wifi_softap_set_default_ssid
                0x00000000402147b0                wifi_softap_get_config
                0x00000000402147c4                wifi_softap_get_config_default
                0x0000000040214b00                wifi_softap_set_config
                0x0000000040214b14                wifi_softap_set_config_current
                0x0000000040214b28                wifi_softap_set_station_info
                0x0000000040214b98                wifi_softap_get_station_info
                0x0000000040214c44                wifi_softap_free_station_info
                0x0000000040214c84                wifi_softap_get_station_num
                0x0000000040214cd8                wifi_softap_deauth
                0x0000000040214d88                wifi_softap_get_beacon_only_mode
                0x0000000040214d9c                wifi_softap_set_beacon_only_mode
                0x0000000040214e00                wifi_register_user_ie_manufacturer_recv_cb
                0x0000000040214e14                wifi_unregister_user_ie_manufacturer_recv_cb
                0x0000000040214e44                wifi_set_user_ie
                0x0000000040214f54                wifi_get_user_ie
                0x0000000040214f88                wifi_get_phy_mode
                0x0000000040214f9c                wifi_set_phy_mode
                0x0000000040215150                wifi_check_regdomain_param
                0x00000000402151d4                wifi_regdomain_need_update
                0x00000000402152b0                wifi_set_regdomain
                0x00000000402153e8                wifi_get_regdomain
                0x0000000040215498                wifi_set_sleep_type
                0x00000000402154b8                wifi_enable_gpio_wakeup
                0x00000000402154e4                wifi_disable_gpio_wakeup
                0x00000000402154fc                wifi_get_sleep_type
                0x0000000040215514                wifi_get_channel
                0x000000004021552c                wifi_set_channel
                0x0000000040215584                wifi_promiscuous_set_mac
                0x00000000402155e4                wifi_promiscuous_enable
                0x00000000402156c8                wifi_set_promiscuous_rx_cb
                0x00000000402156d8                wifi_get_ip_info
                0x0000000040215758                wifi_set_ip_info
                0x00000000402157cc                wifi_get_macaddr
                0x000000004021582c                wifi_set_macaddr
                0x0000000040215948                wifi_enable_6m_rate
                0x0000000040215950                wifi_get_user_fixed_rate
                0x0000000040215970                wifi_set_user_fixed_rate
                0x0000000040215990                wifi_set_user_sup_rate
                0x00000000402159cc                wifi_set_user_rate_limit
                0x00000000402159f0                wifi_get_user_limit_rate_mask
                0x00000000402159f8                wifi_set_user_limit_rate_mask
                0x0000000040215a10                wifi_register_send_pkt_freedom_cb
                0x0000000040215a24                wifi_unregister_send_pkt_freedom_cb
                0x0000000040215a30                wifi_send_pkt_freedom
                0x0000000040215a7c                wifi_rfid_locp_recv_open
                0x0000000040215a90                wifi_rfid_locp_recv_close
                0x0000000040215aa4                wifi_register_rfid_locp_recv_cb
                0x0000000040215ab8                wifi_unregister_rfid_locp_recv_cb
                0x0000000040215ad0                wifi_status_led_install
                0x0000000040215b04                wifi_status_led_uninstall
                0x0000000040215b28                wifi_set_status_led_output_level
                0x0000000040215b7c                wifi_set_event_handler_cb
                0x0000000040215bc4                system_os_task
                0x0000000040215c00                system_uart_swap
                0x0000000040215c60                system_uart_de_swap
                0x0000000040215c94                system_get_sdk_version
 *fill*         0x0000000040215c99        0x3 
 .irom0.text    0x0000000040215c9c      0x610 /opt/esp-open-sdk/sdk/lib/libmain.a(eagle_lib.o)
                                        0x620 (size before relaxing)
                0x0000000040215ca0                divide
                0x0000000040215cdc                skip_atoi
                0x0000000040215e5c                ets_vsnprintf
                0x00000000402161bc                ets_vsprintf
                0x00000000402161e0                ets_sprintf
                0x0000000040216208                ets_strcat
                0x0000000040216228                ets_strrchr
                0x0000000040216254                ets_strchr
                0x000000004021626c                bit_popcount
                0x0000000040216288                ets_snprintf
 .irom0.text    0x00000000402162ac      0x31e /opt/esp-open-sdk/sdk/lib/libmain.a(eagle_lwip_if.o)
                                        0x3e6 (size before relaxing)
                0x0000000040216364                eagle_lwip_if_alloc
                0x0000000040216524                eagle_lwip_if_free
                0x00000000402165a8                eagle_lwip_getif
 *fill*         0x00000000402165ca        0x2 
 .irom0.text    0x00000000402165cc      0x13a build/app_app.a(user_main.o)
                                        0x18a (size before relaxing)
                0x00000000402165ec                led_demo_cb
                0x00000000402166a0                user_init
 *fill*         0x0000000040216706        0x2 
 .irom0.text    0x0000000040216708      0x5cf build/app_app.a(esp_nano_httpd.o)
                                        0x6ff (size before relaxing)
                0x000000004021680c                send_http_response
                0x000000004021691c                resp_http_ok
                0x0000000040216940                resp_http_404
                0x0000000040216978                resp_http_error
                0x0000000040216bd4                send_html
                0x0000000040216bf0                esp_nano_httpd_register_content
                0x0000000040216c08                esp_nano_httpd_init
 *fill*         0x0000000040216cd7        0x1 
 .irom0.text    0x0000000040216cd8      0x39e build/app_app.a(nano_httpd_wifi_util.o)
                                        0x482 (size before relaxing)
                0x0000000040216cdc                json_putchar
                0x0000000040216ee0                wifi_callback
 *fill*         0x0000000040217076        0x2 
 .irom0.text    0x0000000040217078      0x48d /opt/esp-open-sdk/sdk/lib/libpp.a(if_hwctrl.o)
                                        0x5bd (size before relaxing)
                0x0000000040217098                ic_get_addr
                0x00000000402170a4                ic_set_opmode
                0x00000000402170b8                ic_enable_interface
                0x0000000040217108                ic_interface_enabled
                0x000000004021711c                ic_disable_interface
                0x0000000040217164                ic_is_pure_sta
                0x0000000040217180                ic_get_ptk_alg
                0x0000000040217190                ic_get_gtk_alg
                0x00000000402171a0                ic_set_ptk_alg
                0x00000000402171b0                ic_set_gtk_alg
                0x00000000402171c0                ic_interface_is_p2p
                0x0000000040217258                ic_set_vif
                0x0000000040217314                ic_set_sta
                0x0000000040217414                ic_bss_info_update
                0x0000000040217470                ic_set_key
                0x00000000402174cc                ic_remove_key
                0x00000000402174e0                ic_get_rssi
 *fill*         0x0000000040217505        0x3 
 .irom0.text    0x0000000040217508      0x104 /opt/esp-open-sdk/sdk/lib/libpp.a(lmac.o)
                                        0x118 (size before relaxing)
                0x000000004021750c                lmacInitAc
                0x0000000040217540                lmacInit
                0x00000000402175f0                lmacSetRetryLimit
 .irom0.text    0x000000004021760c     0x1ac1 /opt/esp-open-sdk/sdk/lib/libpp.a(pm.o)
                                       0x2045 (size before relaxing)
                0x0000000040217610                pm_set_gpio_wakeup_pin
                0x0000000040217648                pm_clear_gpio_wakeup_pin
                0x0000000040217658                pm_is_gpio_int_trig
                0x0000000040217670                pm_rtc_clock_cali_proc
                0x00000000402176a8                pm_get_ck170_period
                0x00000000402176cc                pm_set_sleep_time
                0x0000000040217a44                pm_rf_is_closed
                0x0000000040217a74                pm_set_sleep_type_from_upper
                0x0000000040217b64                pm_get_sleep_type
                0x0000000040217d24                uart_tx_flush
                0x0000000040217d28                pm_suspend
                0x0000000040217f50                pm_shutdown
                0x0000000040218030                pm_reset_idle_sleep
                0x0000000040218070                pm_idle_sleep
                0x0000000040218084                pm_open
                0x0000000040218188                pm_onBcnRx
                0x000000004021851c                StopLightSleepSetFunc
                0x0000000040218524                LightSleepWakedCbSetFunc
                0x0000000040218af4                pm_enable_gpio_wakeup
                0x0000000040218b30                pm_attach
                0x0000000040218c38                pm_send_nullfunc
                0x0000000040218ddc                pm_is_waked
                0x0000000040218df4                pm_is_open
                0x0000000040218e0c                pm_scan_lock
                0x0000000040218e34                pm_try_scan_unlock
                0x0000000040218e4c                pm_force_scan_unlock
                0x0000000040218ef0                pm_scan_unlocked
                0x0000000040218f04                pm_allow_tx
                0x0000000040218f20                pm_assoc_parse
                0x0000000040218f38                pm_set_addr
                0x0000000040218f58                pm_sleep_for
                0x0000000040218f88                pm_post
                0x000000004021908c                pm_get_idle_wait_time
 *fill*         0x00000000402190cd        0x3 
 .irom0.text    0x00000000402190d0      0xb38 /opt/esp-open-sdk/sdk/lib/libpp.a(pm_for_bcn_only_mode.o)
                                        0xee4 (size before relaxing)
                0x00000000402190e4                wifi_fpm_set_sleep_type
                0x00000000402190e4                fpm_set_type_from_upper
                0x00000000402191a0                wifi_fpm_get_sleep_type
                0x00000000402191a0                fpm_get_slp_type
                0x00000000402191a8                fpm_rf_is_closed
                0x00000000402191bc                fpm_is_open
                0x00000000402191c8                fpm_allow_tx
                0x00000000402191f0                wifi_fpm_close
                0x00000000402191f0                fpm_close
                0x0000000040219280                wifi_fpm_open
                0x0000000040219280                fpm_open
                0x0000000040219304                fpm_attach
                0x00000000402194b4                wifi_fpm_set_wakeup_cb
                0x00000000402194b4                fpm_set_wakeup_cb
                0x00000000402195f0                wifi_fpm_do_wakeup
                0x00000000402195f0                fpm_do_wakeup
                0x0000000040219b20                fpm_do_sleep
                0x0000000040219b20                wifi_fpm_do_sleep
                0x0000000040219bc0                fpm_auto_sleep_set_in_null_mode
                0x0000000040219bc0                wifi_fpm_auto_sleep_set_in_null_mode
                0x0000000040219c00                get_fpm_auto_sleep_flag
 .irom0.text    0x0000000040219c08     0x15ce /opt/esp-open-sdk/sdk/lib/libpp.a(pp.o)
                                       0x19a2 (size before relaxing)
                0x0000000040219c14                PPWdtReset
                0x0000000040219c48                pp_soft_wdt_init
                0x0000000040219c68                system_soft_wdt_feed
                0x0000000040219c68                pp_soft_wdt_feed
                0x0000000040219c84                pp_soft_wdt_stop
                0x0000000040219c84                system_soft_wdt_stop
                0x0000000040219cb0                pp_soft_wdt_restart
                0x0000000040219cb0                system_soft_wdt_restart
                0x0000000040219ce8                RxNodeNum
                0x0000000040219d00                TxNodeNum
                0x0000000040219d24                pp_disable_noise_timer
                0x0000000040219d44                pp_enable_noise_timer
                0x0000000040219e54                pp_noise_test
                0x0000000040219e64                reset_noise_timer
                0x0000000040219e9c                pp_disable_idle_timer
                0x0000000040219ec0                pp_enable_idle_timer
                0x0000000040219ee8                pp_try_enable_idle_timer
                0x0000000040219f24                ppPeocessRxPktHdr
                0x000000004021a258                HdlAllBuffedEb
                0x000000004021a2e0                ppTxPkt
                0x000000004021a458                ppProcessWaitQ
                0x000000004021a468                ppRegisterTxCallback
                0x000000004021a490                ppUnregisterTxCallback
                0x000000004021a4c4                ppRecycleRxPkt
                0x000000004021a524                ppCheckTxIdle
                0x000000004021a7a0                pp_tx_idle_timeout
                0x000000004021a964                DefFreqCalTimerCB
                0x000000004021ace0                ppGetTxQFirstAvail_Locked
                0x000000004021adc4                pp_attach
 *fill*         0x000000004021b1d6        0x2 
 .irom0.text    0x000000004021b1d8      0x29e /opt/esp-open-sdk/sdk/lib/libpp.a(rate_control.o)
                                        0x2a2 (size before relaxing)
                0x000000004021b42c                RC_SetBasicRate
 *fill*         0x000000004021b476        0x2 
 .irom0.text    0x000000004021b478      0x5e9 /opt/esp-open-sdk/sdk/lib/libpp.a(trc.o)
                                        0x64d (size before relaxing)
                0x000000004021b478                phytype2mode
                0x000000004021b494                rc_set_rate_limit_id
                0x000000004021b5b0                rcUpdatePhyMode
                0x000000004021b77c                rcAttach
                0x000000004021b7c8                rcGetTrc
                0x000000004021b7d0                trc_onDisconnect
                0x000000004021b7d4                trc_onScanStart
                0x000000004021b7e8                trc_onScanDone
                0x000000004021b804                rc_enable_trc
                0x000000004021b8dc                rc_get_mask
                0x000000004021b8f0                rc_disable_trc
                0x000000004021b944                rc_disable_trc_by_interface
                0x000000004021b960                rc_get_sta_trc
                0x000000004021b9a4                rc_get_trc
                0x000000004021ba14                rc_get_trc_by_index
                0x000000004021ba34                rc_only_sta_trc
 *fill*         0x000000004021ba61        0x3 
 .irom0.text    0x000000004021ba64      0xbe7 /opt/esp-open-sdk/sdk/lib/libpp.a(wdev.o)
                                        0xd43 (size before relaxing)
                0x000000004021ba78                wDev_Option_Init
                0x000000004021bb6c                wDev_Enable_Beacon_Tsf
                0x000000004021bb88                wDev_Disable_Beacon_Tsf
                0x000000004021bba4                wDev_Set_Beacon_Int
                0x000000004021bbac                wDev_Reset_TBTT
                0x000000004021bbdc                wDev_Get_Next_TBTT
                0x000000004021be5c                wDev_Initialize
                0x000000004021becc                wDevForceAck6M
                0x000000004021bee8                wDev_SetMacAddress
                0x000000004021bf84                wDev_SetRxPolicy
                0x000000004021bfd8                wDev_EnableUcRx
                0x000000004021c004                wDev_DisableUcRx
                0x000000004021c030                wDev_SetBssid
                0x000000004021c108                wDev_ClearBssid
                0x000000004021c13c                wDev_Is_Mac_Key_Exist
                0x000000004021c1c8                wDev_Insert_KeyEntry
                0x000000004021c2b8                wDev_remove_KeyEntry
                0x000000004021c2f4                wDev_remove_KeyEntry_all_cnx
                0x000000004021c340                wDev_Crypto_Conf
                0x000000004021c3e0                wDev_Crypto_Disable
                0x000000004021c418                wDevEnableRx
                0x000000004021c444                wdev_go_sniffer
                0x000000004021c520                wdev_set_sniffer_addr
                0x000000004021c57c                wdev_exit_sniffer
 *fill*         0x000000004021c64b        0x1 
 .irom0.text    0x000000004021c64c      0x3f5 /opt/esp-open-sdk/sdk/lib/libpp.a(esf_buf.o)
                                        0x4c1 (size before relaxing)
                0x000000004021c65c                esf_buf_alloc
                0x000000004021c844                esf_buf_recycle
                0x000000004021c984                esf_buf_setup
 *fill*         0x000000004021ca41        0x3 
 .irom0.text    0x000000004021ca44       0xfa /opt/esp-open-sdk/sdk/lib/libphy.a(phy.o)
                                        0x11e (size before relaxing)
                0x000000004021ca48                rf_init
                0x000000004021ca64                bb_init
                0x000000004021ca7c                phy_init
                0x000000004021caac                RFChannelSel
                0x000000004021cac8                phy_delete_channel
                0x000000004021cae0                phy_enable_agc
                0x000000004021caf8                phy_disable_agc
                0x000000004021cb10                phy_initialize_bb
                0x000000004021cb28                phy_set_sense
 *fill*         0x000000004021cb3e        0x2 
 .irom0.text    0x000000004021cb40     0x175f /opt/esp-open-sdk/sdk/lib/libphy.a(phy_chip_v6_ana.o)
                                       0x197f (size before relaxing)
                0x000000004021cb40                ram_pbus_set_rxgain
                0x000000004021cc10                ram_pbus_debugmode
                0x000000004021ccc4                ram_pbus_xpd_tx_on
                0x000000004021cd30                set_rf_freq_offset
                0x000000004021cda0                chip_v6_rxmax_ext_ana
                0x000000004021cef4                ram_chip_v6_rx_init
                0x000000004021cf24                tsen_meas
                0x000000004021cfd4                readvdd33
                0x000000004021d19c                txpwr_offset
                0x000000004021d258                set_txcap_reg
                0x000000004021d2d8                ram_ana_inf_gating_en
                0x000000004021d438                ram_restart_cal
                0x000000004021d4a4                wait_rfpll_cal_end
                0x000000004021d53c                ram_rfpll_set_freq
                0x000000004021d644                ram_set_channel_freq
                0x000000004021d940                chip_60_set_channel
                0x000000004021dae0                chip_v6_set_chan_offset
                0x000000004021db3c                chip_v6_set_chan
                0x000000004021dbec                chip_v6_set_chan_wakeup
                0x000000004021dc6c                chip_v6_rf_init
                0x000000004021ded0                low_power_set
                0x000000004021df20                test_tout
                0x000000004021e098                check_data_flag
                0x000000004021e0b8                phy_get_check_flag
                0x000000004021e1ec                phy_get_vdd33
 *fill*         0x000000004021e29f        0x1 
 .irom0.text    0x000000004021e2a0     0x3e30 /opt/esp-open-sdk/sdk/lib/libphy.a(phy_chip_v6.o)
                                       0x44fc (size before relaxing)
                0x000000004021e2a0                ram_tx_mac_enable
                0x000000004021e2a4                ram_tx_mac_disable
                0x000000004021e2a8                rtc_mem_backup
                0x000000004021e2d8                rtc_mem_recovery
                0x000000004021e308                set_cal_rxdc
                0x000000004021e3bc                set_rx_gain_cal_iq
                0x000000004021e718                gen_rx_gain_table
                0x000000004021e870                pbus_set_rxbbgain
                0x000000004021e8ec                set_rx_gain_testchip_50
                0x000000004021ec20                ram_get_corr_power
                0x000000004021ed10                check_data_func
                0x000000004021ed30                do_noisefloor_lsleep_v50
                0x000000004021ed64                do_noisefloor
                0x000000004021edd4                start_dig_rx
                0x000000004021ee18                stop_dig_rx
                0x000000004021ee44                chip_v6_set_chanfreq
                0x000000004021ee70                tx_cap_init
                0x000000004021f098                target_power_add_backoff
                0x000000004021f0c0                tx_pwctrl_init_cal
                0x000000004021f260                tx_atten_set_interp
                0x000000004021f4c0                check_tx_pwr_cal
                0x000000004021f604                tx_pwctrl_init
                0x000000004021f728                ram_get_noisefloor
                0x000000004021f744                get_noisefloor_sat
                0x000000004021f774                ram_set_noise_floor
                0x000000004021f7cc                ram_start_noisefloor
                0x000000004021f818                read_hw_noisefloor
                0x000000004021f840                noise_check_loop
                0x000000004021f998                noise_init
                0x000000004021fb98                target_power_backoff
                0x000000004021fbec                sdt_on_noise_start
                0x000000004021fc6c                chip_v6_set_chan_rx_cmp
                0x000000004021fdf8                chip_v6_set_chan_misc
                0x000000004021fe8c                phy_dig_spur_set
                0x00000000402201e4                phy_dig_spur_prot
                0x000000004022041c                chip_v6_rxmax_ext_dig
                0x0000000040220468                chip_v6_rxmax_ext
                0x0000000040220510                phy_bb_rx_cfg
                0x0000000040220928                uart_wait_idle
                0x000000004022095c                phy_pbus_soc_cfg
                0x0000000040220a14                phy_gpio_cfg
                0x0000000040220c28                tx_cont_en
                0x0000000040220cd0                tx_cont_dis
                0x0000000040220d24                tx_cont_cfg
                0x0000000040220d48                chip_v6_initialize_bb
                0x0000000040220eac                periodic_cal
                0x0000000040220ee4                bbpll_cal
                0x0000000040220f8c                periodic_cal_top
                0x0000000040220ff0                register_chipv6_phy_init_param
                0x0000000040221298                change_bbpll160_sleep
                0x0000000040221448                change_bbpll160
                0x0000000040221480                set_crystal_uart
                0x0000000040221510                ant_switch_init
                0x00000000402215c0                reduce_current_init
                0x00000000402216ac                rtc_mem_check
                0x00000000402216e8                phy_afterwake_set_rfoption
                0x0000000040221704                deep_sleep_set_option
                0x0000000040221730                write_data_to_rtc
                0x0000000040221768                get_data_from_rtc
                0x00000000402217ec                register_chipv6_phy
                0x0000000040221c84                set_dpd_bypass
                0x0000000040221cac                set_rf_gain_stage10
                0x0000000040221cdc                get_vdd33_offset
                0x0000000040221d50                get_phy_target_power
                0x0000000040221e00                set_most_pwr_reg
                0x0000000040221ed4                phy_set_most_tpw
                0x0000000040221ef4                phy_vdd33_set_tpw
                0x0000000040221f0c                get_adc_rand
                0x0000000040221f3c                phy_get_rand
                0x0000000040221f58                phy_tx_pwctrl_cali
                0x0000000040221f80                phy_check_data_table
                0x0000000040221fbc                phy_after_init_enrx
                0x0000000040222020                phy_set_rx11b_reg
                0x0000000040222054                phy_set_powerup_option
                0x0000000040222064                phy_get_txpwr_param
                0x00000000402220b0                phy_get_rxnf_param
                0x00000000402220bc                phy_get_freq_param
 .irom0.text    0x00000000402220d0     0x2198 /opt/esp-open-sdk/sdk/lib/libphy.a(phy_chip_v6_cal.o)
                                       0x23d4 (size before relaxing)
                0x00000000402220d0                txbbgain2dcoindex
                0x00000000402220f0                dcoindex2txbbgain
                0x0000000040222114                init_cal_dcoffset
                0x00000000402221d8                set_rfanagain_dc_reg
                0x0000000040222274                set_txdc_pbus
                0x00000000402222e0                get_rf_gain_qdb
                0x0000000040222308                correct_rf_ana_gain
                0x0000000040222410                get_sar_dout
                0x00000000402224a0                cal_rf_ana_gain
                0x00000000402225b8                meas_tone_pwr_db
                0x0000000040222628                tx_pwr_backoff
                0x00000000402227dc                get_fcc_1m2m_pwr_offset
                0x0000000040222818                ram_set_txbb_atten
                0x00000000402228ac                txiq_get_mis_pwr
                0x0000000040222950                txiq_cover
                0x0000000040222b68                ram_rfcal_txiq
                0x0000000040222dd4                rc_cal
                0x0000000040222f94                get_target_power_offset
                0x000000004022309c                get_pwctrl_correct
                0x00000000402230f4                tx_pwctrl_cal
                0x00000000402233f0                tx_pwctrl_bg_init
                0x0000000040223468                tx_pwctrl_background
                0x0000000040223520                read_sar_dout
                0x0000000040223584                ram_get_fm_sar_dout
                0x0000000040223628                ram_cal_tos_v60
                0x00000000402237f8                ram_get_bb_atten
                0x0000000040223828                ram_rfcal_txcap
                0x00000000402239ec                ram_rfcal_pwrctrl
                0x0000000040223c28                ram_rxiq_get_mis
                0x0000000040223df4                ram_rxiq_cover_mg_mp
                0x0000000040223f98                ram_rfcal_rxiq
                0x00000000402241a4                dpd_scale_set
                0x00000000402241ec                dpd_mem_write
 .irom0.text    0x0000000040224268      0xc86 /opt/esp-open-sdk/sdk/lib/libphy.a(phy_sleep.o)
                                        0xe9a (size before relaxing)
                0x0000000040224268                pm_usec2rtc
                0x000000004022429c                pm_rtc2usec
                0x00000000402242ac                pm_set_sleep_cycles
                0x00000000402242d4                pm_sleep_opt
                0x0000000040224428                pm_wakeup_opt
                0x0000000040224460                get_chip_version
                0x00000000402244a0                pm_sleep_opt_bb_off
                0x00000000402244ec                pm_sleep_opt_bb_on
                0x0000000040224540                pm_set_pll_xtal_wait_time
                0x000000004022456c                pm_prepare_to_sleep
                0x0000000040224574                pm_sdio_nidle
                0x00000000402245e8                chg_lslp_mem_opt_8266
                0x0000000040224608                pm_wait4wakeup
                0x0000000040224644                pm_open_rf
                0x0000000040224680                pm_sleep_set_mac
                0x0000000040224704                pm_set_wakeup_mac
                0x000000004022479c                pm_check_mac_idle
                0x00000000402247f4                pm_set_sleep_btco
                0x0000000040224894                pm_set_wakeup_btco
                0x00000000402249ac                pm_set_sleep_mode
                0x0000000040224acc                pm_unmask_bt
                0x0000000040224b38                pm_wakeup_init
                0x0000000040224d94                sleep_opt_8266
                0x0000000040224db4                sleep_opt_bb_on_8266
                0x0000000040224dec                sleep_reset_analog_rtcreg_8266
 *fill*         0x0000000040224eee        0x2 
 .irom0.text    0x0000000040224ef0      0x479 /opt/esp-open-sdk/sdk/lib/libnet80211.a(ieee80211.o)
                                        0x545 (size before relaxing)
                0x0000000040224f74                ieee80211_rate_ref_init
                0x0000000040224f8c                ieee80211_freedom_inside_cb
                0x0000000040224fbc                ieee80211_freedom_init
                0x0000000040224fe0                ieee80211_user_ie_init
                0x0000000040224ffc                ieee80211_ifattach
                0x0000000040225060                ieee80211_mhz2ieee
                0x00000000402250bc                ieee80211_chan2ieee
                0x00000000402250d8                ieee80211_ieee2mhz
                0x0000000040225118                ieee80211_find_channel
                0x0000000040225144                ieee80211_find_channel_byieee
                0x0000000040225194                wifi_mode_set
 *fill*         0x0000000040225369        0x3 
 .irom0.text    0x000000004022536c       0xcf /opt/esp-open-sdk/sdk/lib/libnet80211.a(ieee80211_crypto.o)
                                         0xd7 (size before relaxing)
                0x000000004022536c                ieee80211_crypto_attach
                0x0000000040225370                ieee80211_crypto_available
                0x0000000040225374                ieee80211_crypto_setkey
                0x0000000040225378                ieee80211_crypto_encap
                0x00000000402253d0                ieee80211_crypto_decap
 *fill*         0x000000004022543b        0x1 
 .irom0.text    0x000000004022543c       0x4c /opt/esp-open-sdk/sdk/lib/libnet80211.a(ieee80211_ets.o)
                                         0x50 (size before relaxing)
                0x0000000040225440                ieee80211_getmgtframe
 .irom0.text    0x0000000040225488     0x19f8 /opt/esp-open-sdk/sdk/lib/libnet80211.a(ieee80211_hostap.o)
                                       0x1f3b (size before relaxing)
                0x0000000040225acc                ieee80211_hostap_attach
                0x0000000040225bc8                hostap_handle_timer
                0x0000000040225c60                hostap_input
                0x0000000040226b60                wifi_softap_start
                0x0000000040226ce4                wifi_softap_stop
 *fill*         0x0000000040226e80        0x0 
 .irom0.text    0x0000000040226e80      0xa62 /opt/esp-open-sdk/sdk/lib/libnet80211.a(ieee80211_ht.o)
                                        0xb36 (size before relaxing)
                0x0000000040226e90                ieee80211_ht_attach
                0x0000000040226ee0                ieee80211_ht_node_init
                0x0000000040226f20                ieee80211_ht_node_cleanup
                0x0000000040226f58                ieee80211_parse_htcap
                0x000000004022703c                ieee80211_ht_updateparams
                0x000000004022714c                ieee80211_setup_htrates
                0x0000000040227218                ieee80211_setup_basic_htrates
                0x0000000040227550                ieee80211_add_htcap
                0x000000004022756c                ieee80211_add_htcap_vendor
                0x000000004022768c                ieee80211_add_htinfo
                0x00000000402276a8                ieee80211_add_htinfo_vendor
 *fill*         0x00000000402278e2        0x2 
 .irom0.text    0x00000000402278e4      0xae0 /opt/esp-open-sdk/sdk/lib/libnet80211.a(ieee80211_input.o)
                                        0xb70 (size before relaxing)
                0x00000000402278e4                ieee80211_deliver_data
                0x0000000040227938                ieee80211_decap
                0x0000000040227a3c                ieee80211_setup_rates
                0x0000000040227aac                ieee80211_alloc_challenge
                0x0000000040227aec                ieee80211_parse_beacon
                0x0000000040228110                ieee80211_parse_wpa
                0x0000000040228224                ieee80211_parse_rsn
                0x0000000040228324                ieee80211_parse_action
                0x00000000402283c0                ieee80211_setup_rateset
 .irom0.text    0x00000000402283c4      0x2a6 /opt/esp-open-sdk/sdk/lib/libnet80211.a(ieee80211_mesh_quick.o)
                                        0x302 (size before relaxing)
                0x00000000402283d0                ieee80211_mesh_quick_init
                0x0000000040228440                ieee80211_mesh_quick_deinit
                0x0000000040228470                ieee80211_mesh_quick_set
                0x000000004022856c                ieee80211_mesh_quick_get
                0x0000000040228638                ieee80211_mesh_quick_ie_add
 *fill*         0x000000004022866a        0x2 
 .irom0.text    0x000000004022866c     0x1e44 /opt/esp-open-sdk/sdk/lib/libnet80211.a(ieee80211_output.o)
                                       0x220c (size before relaxing)
                0x0000000040228670                ieee80211_output_pbuf
                0x00000000402288e0                ieee80211_send_setup
                0x0000000040228a14                ieee80211_mgmt_output
                0x0000000040228afc                ieee80211_tx_mgt_cb
                0x0000000040228b00                ieee80211_send_nulldata
                0x0000000040228f70                ieee80211_add_rates
                0x0000000040228fc0                ieee80211_add_xrates
                0x00000000402290f0                ieee80211_send_probereq
                0x0000000040229360                ieee80211_getcapinfo
                0x00000000402293bc                ieee80211_send_mgmt
                0x0000000040229968                ieee80211_alloc_proberesp
                0x0000000040229bd0                ieee80211_send_proberesp
                0x0000000040229d18                ieee80211_alloc_deauth
                0x0000000040229d58                ieee80211_send_deauth
                0x0000000040229e94                ieee80211_freedom_output
                0x000000004022a2d4                ieee80211_beacon_alloc
 .irom0.text    0x000000004022a4b0       0xe0 /opt/esp-open-sdk/sdk/lib/libnet80211.a(ieee80211_phy.o)
                                        0x108 (size before relaxing)
                0x000000004022a4b0                ieee80211_phy_init
                0x000000004022a4e4                ieee80211_phy_type_get
                0x000000004022a500                ieee80211_setup_ratetable
 .irom0.text    0x000000004022a590      0x1b6 /opt/esp-open-sdk/sdk/lib/libnet80211.a(ieee80211_power.o)
                                        0x1f2 (size before relaxing)
                0x000000004022a590                ieee80211_psq_init
                0x000000004022a5b0                ieee80211_psq_cleanup
                0x000000004022a5b8                ieee80211_set_tim
                0x000000004022a5f8                ieee80211_pwrsave
                0x000000004022a660                pwrsave_flushq
                0x000000004022a710                ieee80211_node_pwrsave
 *fill*         0x000000004022a746        0x2 
 .irom0.text    0x000000004022a748      0x121 /opt/esp-open-sdk/sdk/lib/libnet80211.a(ieee80211_proto.o)
                                        0x159 (size before relaxing)
                0x000000004022a74c                ieee80211_proto_attach
                0x000000004022a774                ieee80211_set_shortslottime
                0x000000004022a790                ieee80211_iserp_rateset
                0x000000004022a7c4                ieee80211_wme_initparams
                0x000000004022a7c8                ieee80211_wme_updateparams
                0x000000004022a7d0                ieee80211_mlme_connect_bss
 *fill*         0x000000004022a869        0x3 
 .irom0.text    0x000000004022a86c      0x1bc /opt/esp-open-sdk/sdk/lib/libnet80211.a(ieee80211_regdomain.o)
                                        0x1dc (size before relaxing)
                0x000000004022a86c                ieee80211_regdomain_attach
                0x000000004022a874                ieee80211_regdomain_detach
                0x000000004022a89c                ieee80211_alloc_countryie
                0x000000004022a93c                ieee80211_chan_in_regdomain
                0x000000004022a980                ieee80211_update_regdomain
 .irom0.text    0x000000004022aa28       0xaa /opt/esp-open-sdk/sdk/lib/libnet80211.a(ieee80211_rfid.o)
                                         0xd6 (size before relaxing)
                0x000000004022aa28                ieee80211_rfid_locp_recv_open
                0x000000004022aa60                ieee80211_rfid_locp_recv_close
                0x000000004022aa78                ieee80211_rfid_locp_recv_reset
                0x000000004022aa98                ieee80211_rfid_locp_recv
                0x000000004022aab4                register_ieee80211_rfid_locp_recv_cb
                0x000000004022aac8                unregister_ieee80211_rfid_locp_recv_cb
 *fill*         0x000000004022aad2        0x2 
 .irom0.text    0x000000004022aad4      0xf49 /opt/esp-open-sdk/sdk/lib/libnet80211.a(ieee80211_scan.o)
                                       0x129d (size before relaxing)
                0x000000004022aae0                ieee80211_scan_attach
                0x000000004022ab74                scan_start
                0x000000004022ad34                scan_pm_channel_op_cb
                0x000000004022aed4                scan_cancel
                0x000000004022b030                scan_add_bssid
                0x000000004022b054                scan_remove_bssid
                0x000000004022b060                scan_hidden_ssid
                0x000000004022b068                scan_add_probe_ssid
                0x000000004022b0bc                scan_remove_probe_ssid
                0x000000004022b1f8                scan_clear_channles
                0x000000004022b26c                scan_set_desChan
                0x000000004022b278                scan_get_type
                0x000000004022b280                cannel_scan_connect_state
                0x000000004022b298                scan_connect_state
                0x000000004022b2e0                scan_check_hidden
                0x000000004022b30c                scan_profile_check
                0x000000004022b6ac                scan_parse_beacon
 *fill*         0x000000004022ba1d        0x3 
 .irom0.text    0x000000004022ba20     0x10f9 /opt/esp-open-sdk/sdk/lib/libnet80211.a(ieee80211_sta.o)
                                       0x139d (size before relaxing)
                0x000000004022ba7c                sta_status_set
                0x000000004022bae8                ieee80211_sta_new_state
                0x000000004022be78                sta_input
                0x000000004022c3c4                ieee80211_parse_wmeparams
                0x000000004022ca64                wifi_station_start
                0x000000004022cad8                wifi_station_stop
 *fill*         0x000000004022cb19        0x3 
 .irom0.text    0x000000004022cb1c      0x2aa /opt/esp-open-sdk/sdk/lib/libnet80211.a(wl_chm.o)
                                        0x32e (size before relaxing)
                0x000000004022cb28                chm_init
                0x000000004022cb98                chm_acquire_lock
                0x000000004022cbdc                chm_release_lock
                0x000000004022cbf0                chm_start_op
                0x000000004022cc94                chm_end_op
                0x000000004022ccdc                chm_cancel_op
                0x000000004022cd10                chm_return_home_channel
                0x000000004022cd40                chm_set_current_channel
                0x000000004022cd70                chm_freq2index
                0x000000004022cd98                chm_check_same_channel
 *fill*         0x000000004022cdc6        0x2 
 .irom0.text    0x000000004022cdc8     0x193d /opt/esp-open-sdk/sdk/lib/libnet80211.a(wl_cnx.o)
                                       0x1f2d (size before relaxing)
                0x000000004022cdd4                cnx_attach
                0x000000004022ce14                cnx_sta_connect_led_timer_cb
                0x000000004022ce68                cnx_sta_connect_cmd
                0x000000004022cf44                cnx_sta_scan_cmd
                0x000000004022d1ac                cnx_connect_timeout
                0x000000004022d228                cnx_auth_timeout
                0x000000004022d24c                cnx_assoc_timeout
                0x000000004022d270                cnx_handshake_timeout
                0x000000004022d2b0                cnx_start_handoff_cb
                0x000000004022d448                cnx_csa_fn
                0x000000004022d854                cnx_bss_alloc
                0x000000004022d8f4                cnx_rc_search
                0x000000004022d974                cnx_add_rc
                0x000000004022d9e0                cnx_remove_all_rc
                0x000000004022da2c                cnx_remove_rc
                0x000000004022dafc                cnx_rc_update_rssi
                0x000000004022db84                cnx_rc_update_state_metric
                0x000000004022dbf0                cnx_rc_update_age
                0x000000004022dc14                cnx_update_bss
                0x000000004022dc48                cnx_update_bss_more
                0x000000004022de34                cnx_sta_leave
                0x000000004022e0c8                cnx_sta_associated
                0x000000004022e1d0                cnx_node_alloc
                0x000000004022e244                cnx_node_remove
                0x000000004022e2d0                cnx_node_search
                0x000000004022e34c                cnx_node_leave
                0x000000004022e44c                wifi_softap_staconnected_event_policy
                0x000000004022e474                wifi_softap_toomany_deny
                0x000000004022e4b0                cnx_node_join
 *fill*         0x000000004022e705        0x3 
 .irom0.text    0x000000004022e708      0x16f /opt/esp-open-sdk/sdk/lib/libnet80211.a(ieee80211_action.o)
                                        0x193 (size before relaxing)
                0x000000004022e718                ieee80211_send_action_register
                0x000000004022e74c                ieee80211_send_action_unregister
                0x000000004022e760                ieee80211_send_action
                0x000000004022e7cc                ieee80211_recv_action_register
                0x000000004022e800                ieee80211_recv_action_unregister
                0x000000004022e814                ieee80211_recv_action
 *fill*         0x000000004022e877        0x1 
 .irom0.text    0x000000004022e878      0x568 /opt/esp-open-sdk/sdk/lib/libnet80211.a(ieee80211_action_vendor.o)
                                        0x5fc (size before relaxing)
                0x000000004022e878                ieee80211_avs_fetch_key_idx
                0x000000004022e8cc                ieee80211_avs_clear_key_idx
                0x000000004022e8f4                get_iav_key
                0x000000004022e918                register_ieee80211_action_vendor_get_key_cb
                0x000000004022e930                unregister_ieee80211_action_vendor_get_key_cb
                0x000000004022e944                ieee80211_add_action_vendor_spec_esp
                0x000000004022e988                ieee80211_alloc_action_vendor_spec
                0x000000004022ea78                ieee80211_send_action_vendor_spec
                0x000000004022ec28                ieee80211_recv_action_vendor_spec
                0x000000004022ed84                ieee80211_action_vendor_spec_attach
                0x000000004022edbc                register_ieee80211_action_vendor_spec_cb
                0x000000004022edd4                unregister_ieee80211_action_vendor_spec_cb
 .irom0.text    0x000000004022ede0      0x15d /opt/esp-open-sdk/sdk/lib/libnet80211.a(ieee80211_crypto_ccmp.o)
                                        0x165 (size before relaxing)
 *fill*         0x000000004022ef3d        0x3 
 .irom0.text    0x000000004022ef40      0x24d /opt/esp-open-sdk/sdk/lib/libnet80211.a(ieee80211_ie_vendor.o)
                                        0x26d (size before relaxing)
                0x000000004022ef44                ieee80211_add_ie_vendor_esp_head
                0x000000004022ef7c                ieee80211_add_ie_vendor_esp_mesh_assoc
                0x000000004022f000                ieee80211_add_ie_vendor_esp_mesh_group
                0x000000004022f034                ieee80211_add_ie_vendor_esp_simple_pair
                0x000000004022f090                ieee80211_add_ie_vendor_esp_freq_annon
                0x000000004022f0c8                ieee80211_add_ie_vendor_esp_now
                0x000000004022f100                ieee80211_add_ie_vendor_esp_ssid
                0x000000004022f140                ieee80211_add_ie_vendor_esp_manufacturer
 *fill*         0x000000004022f18d        0x3 
 .irom0.text    0x000000004022f190     0x146a /opt/esp-open-sdk/sdk/lib/liblwip.a(dhcp.o)
                                       0x1666 (size before relaxing)
                0x000000004022f40c                dhcp_coarse_tmr
                0x000000004022f458                dhcp_fine_tmr
                0x000000004022f6b0                dhcp_set_struct
                0x000000004022f6d8                dhcp_cleanup
                0x000000004022f704                dhcp_start
                0x000000004022f7bc                dhcp_inform
                0x000000004022f868                dhcp_network_changed
                0x000000004022f8b0                dhcp_arp_reply
                0x000000004022fbac                dhcp_renew
                0x000000004022fed8                dhcp_release
                0x000000004022ff98                dhcp_stop
 *fill*         0x00000000402305fa        0x2 
 .irom0.text    0x00000000402305fc      0xe0a /opt/esp-open-sdk/sdk/lib/liblwip.a(dhcpserver.o)
                                       0x104a (size before relaxing)
                0x00000000402305fc                node_insert_to_list
                0x0000000040230634                node_remove_from_list
                0x0000000040230d44                dhcps_start
                0x0000000040230dac                dhcps_stop
                0x0000000040230e30                wifi_softap_set_dhcps_lease
                0x0000000040230f1c                wifi_softap_get_dhcps_lease
                0x0000000040230fbc                dhcps_coarse_tmr
                0x0000000040231030                wifi_softap_set_dhcps_offer_option
                0x0000000040231074                wifi_softap_set_dhcps_lease_time
                0x00000000402310a4                wifi_softap_reset_dhcps_lease_time
                0x00000000402310d0                wifi_softap_get_dhcps_lease_time
                0x00000000402310d8                wifi_softap_dhcps_client_leave
                0x0000000040231180                wifi_softap_dhcps_client_update
 *fill*         0x0000000040231406        0x2 
 .irom0.text    0x0000000040231408      0x5cf /opt/esp-open-sdk/sdk/lib/liblwip.a(dns.o)
                                        0x68b (size before relaxing)
                0x0000000040231414                dns_init
                0x0000000040231454                dns_setserver
                0x0000000040231474                dns_getserver
                0x0000000040231488                dns_tmr
                0x0000000040231980                dns_gethostbyname
 *fill*         0x00000000402319d7        0x1 
 .irom0.text    0x00000000402319d8      0xaf6 /opt/esp-open-sdk/sdk/lib/liblwip.a(espconn.o)
                                        0xbf2 (size before relaxing)
                0x00000000402319d8                espconn_copy_partial
                0x0000000040231a68                espconn_list_creat
                0x0000000040231a88                espconn_list_delete
                0x0000000040231ab0                espconn_pbuf_create
                0x0000000040231acc                espconn_pbuf_delete
                0x0000000040231af4                espconn_find_connection
                0x0000000040231bb0                espconn_connect
                0x0000000040231c94                espconn_create
                0x0000000040231cdc                espconn_sent
                0x0000000040231cdc                espconn_send
                0x0000000040231da8                espconn_recv
                0x0000000040231e1c                espconn_sendto
                0x0000000040231e64                espconn_tcp_get_wnd
                0x0000000040231e88                espconn_tcp_set_wnd
                0x0000000040231ea4                espconn_tcp_get_mss
                0x0000000040231eac                espconn_tcp_get_max_con
                0x0000000040231ebc                espconn_tcp_set_max_con
                0x0000000040231ed4                espconn_tcp_get_max_retran
                0x0000000040231ee4                espconn_tcp_set_max_retran
                0x0000000040231efc                espconn_tcp_get_max_syn
                0x0000000040231f0c                espconn_tcp_set_max_syn
                0x0000000040231f24                espconn_tcp_get_max_con_allow
                0x0000000040231f4c                espconn_tcp_set_max_con_allow
                0x0000000040231f7c                espconn_tcp_set_buf_count
                0x0000000040231fc0                espconn_regist_sentcb
                0x0000000040231fcc                espconn_regist_write_finish
                0x0000000040231fe4                espconn_regist_connectcb
                0x0000000040231ff4                espconn_regist_recvcb
                0x0000000040232000                espconn_regist_reconcb
                0x0000000040232010                espconn_regist_disconcb
                0x0000000040232024                espconn_get_connection_info
                0x00000000402320ec                espconn_accept
                0x0000000040232130                espconn_regist_time
                0x0000000040232170                espconn_disconnect
                0x00000000402321b4                espconn_abort
                0x00000000402321fc                espconn_get_packet_info
                0x000000004023228c                espconn_set_opt
                0x00000000402322e4                espconn_clear_opt
                0x0000000040232344                espconn_set_keepalive
                0x00000000402323b0                espconn_get_keepalive
                0x0000000040232420                espconn_delete
                0x0000000040232468                espconn_port
                0x00000000402324a0                espconn_gethostbyname
                0x00000000402324bc                espconn_dns_setserver
 *fill*         0x00000000402324ce        0x2 
 .irom0.text    0x00000000402324d0     0x10e0 /opt/esp-open-sdk/sdk/lib/liblwip.a(espconn_tcp.o)
                                       0x1414 (size before relaxing)
                0x00000000402325b8                espconn_kill_oldest_pcb
                0x000000004023263c                espconn_kill_pcb
                0x00000000402326b8                espconn_find_current_pcb
                0x0000000040232758                espconn_tcp_memp_free
                0x00000000402329dc                espconn_tcp_sent
                0x0000000040232aa0                espconn_tcp_disconnect
                0x0000000040232b48                espconn_recv_hold
                0x0000000040232b8c                espconn_recv_unhold
                0x0000000040232be8                espconn_lock_recv
                0x0000000040232c34                espconn_unlock_recv
                0x0000000040232d44                espconn_tcp_write
                0x0000000040232f74                espconn_tcp_client
                0x000000004023344c                espconn_tcp_server
                0x0000000040233508                espconn_tcp_delete
                0x0000000040233594                espconn_init
 .irom0.text    0x00000000402335b0      0x4e7 /opt/esp-open-sdk/sdk/lib/liblwip.a(espconn_udp.o)
                                        0x63f (size before relaxing)
                0x0000000040233600                espconn_udp_sent
                0x0000000040233768                espconn_udp_sendto
                0x00000000402339bc                espconn_udp_disconnect
                0x00000000402339f8                espconn_udp_server
                0x0000000040233a60                espconn_igmp_leave
                0x0000000040233a7c                espconn_igmp_join
 *fill*         0x0000000040233a97        0x1 
 .irom0.text    0x0000000040233a98      0x8cf /opt/esp-open-sdk/sdk/lib/liblwip.a(etharp.o)
                                        0x9b7 (size before relaxing)
                0x0000000040233acc                etharp_tmr
                0x0000000040233cf8                etharp_cleanup_netif
                0x0000000040233d34                etharp_find_addr
                0x0000000040233f88                etharp_output
                0x000000004023409c                etharp_query
                0x00000000402342cc                etharp_request
                0x00000000402342f0                ethernet_input
 *fill*         0x0000000040234367        0x1 
 .irom0.text    0x0000000040234368      0x5f6 /opt/esp-open-sdk/sdk/lib/liblwip.a(igmp.o)
                                        0x68a (size before relaxing)
                0x0000000040234374                igmp_init
                0x0000000040234384                igmp_start
                0x00000000402343c8                igmp_stop
                0x000000004023442c                igmp_report_groups
                0x000000004023445c                igmp_lookfor_group
                0x0000000040234524                igmp_input
                0x000000004023466c                igmp_joingroup
                0x0000000040234714                igmp_leavegroup
                0x00000000402347b8                igmp_tmr
 *fill*         0x000000004023495e        0x2 
 .irom0.text    0x0000000040234960       0x40 /opt/esp-open-sdk/sdk/lib/liblwip.a(init.o)
                                         0x60 (size before relaxing)
                0x0000000040234964                lwip_init
 .irom0.text    0x00000000402349a0      0x37a /opt/esp-open-sdk/sdk/lib/liblwip.a(ip_addr.o)
                                        0x3a2 (size before relaxing)
                0x00000000402349a0                ip4_addr_isbroadcast
                0x00000000402349cc                ip4_addr_netmask_valid
                0x0000000040234a0c                ipaddr_addr
                0x0000000040234a28                ipaddr_aton
                0x0000000040234c44                ipaddr_ntoa
                0x0000000040234c58                ipaddr_ntoa_r
 *fill*         0x0000000040234d1a        0x2 
 .irom0.text    0x0000000040234d1c      0x581 /opt/esp-open-sdk/sdk/lib/liblwip.a(ip.o)
                                        0x62d (size before relaxing)
                0x0000000040234d1c                ip_route
                0x0000000040234d98                ip_router
                0x0000000040234e14                ip_input
                0x000000004023506c                ip_output_if
                0x0000000040235088                ip_output_if_opt
                0x0000000040235264                ip_output
 *fill*         0x000000004023529d        0x3 
 .irom0.text    0x00000000402352a0      0x281 /opt/esp-open-sdk/sdk/lib/liblwip.a(netif.o)
                                        0x2c1 (size before relaxing)
                0x00000000402352a0                netif_init
                0x00000000402352a8                netif_add
                0x0000000040235310                netif_set_addr
                0x0000000040235338                netif_remove
                0x0000000040235394                netif_find
                0x00000000402353d0                netif_set_ipaddr
                0x0000000040235438                netif_set_gw
                0x0000000040235448                netif_set_netmask
                0x0000000040235458                netif_set_default
                0x0000000040235460                netif_set_up
                0x000000004023549c                netif_set_down
                0x00000000402354c4                netif_set_link_up
                0x0000000040235510                netif_set_link_down
 *fill*         0x0000000040235521        0x3 
 .irom0.text    0x0000000040235524      0x68e /opt/esp-open-sdk/sdk/lib/liblwip.a(pbuf.o)
                                        0x6f6 (size before relaxing)
                0x0000000040235524                pbuf_free_ooseq_new
                0x000000004023557c                pbuf_alloc
                0x00000000402356dc                pbuf_realloc
                0x0000000040235724                pbuf_header
                0x0000000040235790                pbuf_free
                0x000000004023581c                pbuf_clen
                0x0000000040235834                pbuf_ref
                0x0000000040235840                pbuf_cat
                0x000000004023586c                pbuf_chain
                0x0000000040235888                pbuf_dechain
                0x00000000402358c4                pbuf_copy
                0x0000000040235968                pbuf_copy_partial
                0x00000000402359e8                pbuf_take
                0x0000000040235a48                pbuf_coalesce
                0x0000000040235a7c                pbuf_get_at
                0x0000000040235aa4                pbuf_memcmp
                0x0000000040235b10                pbuf_memfind
                0x0000000040235b68                pbuf_strstr
 *fill*         0x0000000040235bb2        0x2 
 .irom0.text    0x0000000040235bb4      0x1f1 /opt/esp-open-sdk/sdk/lib/liblwip.a(raw.o)
                                        0x249 (size before relaxing)
                0x0000000040235bbc                raw_input
                0x0000000040235c44                raw_bind
                0x0000000040235c54                raw_connect
                0x0000000040235c64                raw_recv
                0x0000000040235c6c                raw_sendto
                0x0000000040235d08                raw_send
                0x0000000040235d20                raw_remove
                0x0000000040235d5c                raw_new
 *fill*         0x0000000040235da5        0x3 
 .irom0.text    0x0000000040235da8     0x157c /opt/esp-open-sdk/sdk/lib/liblwip.a(tcp_in.o)
                                       0x17c0 (size before relaxing)
                0x0000000040235db0                tcp_input
 .irom0.text    0x0000000040237324      0xaeb /opt/esp-open-sdk/sdk/lib/liblwip.a(tcp.o)
                                        0xc23 (size before relaxing)
                0x0000000040237328                tcp_tmr
                0x000000004023734c                tcp_close
                0x0000000040237370                tcp_shutdown
                0x00000000402373d0                tcp_abandon
                0x0000000040237478                tcp_abort
                0x0000000040237490                tcp_bind
                0x000000004023750c                tcp_listen_with_backlog
                0x00000000402375cc                tcp_update_rcv_ann_wnd
                0x0000000040237610                tcp_recved
                0x000000004023766c                tcp_connect
                0x0000000040237778                tcp_slowtmr
                0x0000000040237a20                tcp_fasttmr
                0x0000000040237a9c                tcp_segs_free
                0x0000000040237ab8                tcp_seg_free
                0x0000000040237ae4                tcp_setprio
                0x0000000040237aec                tcp_seg_copy
                0x0000000040237b30                tcp_recv_null
                0x0000000040237be8                tcp_alloc
                0x0000000040237cd0                tcp_new
                0x0000000040237ce4                tcp_arg
                0x0000000040237ce8                tcp_recv
                0x0000000040237cf0                tcp_sent
                0x0000000040237cf8                tcp_err
                0x0000000040237d00                tcp_accept
                0x0000000040237d04                tcp_poll
                0x0000000040237d0c                tcp_pcb_purge
                0x0000000040237d60                tcp_pcb_remove
                0x0000000040237dc8                tcp_next_iss
                0x0000000040237ddc                tcp_eff_send_mss
 *fill*         0x0000000040237e0f        0x1 
 .irom0.text    0x0000000040237e10      0xf20 /opt/esp-open-sdk/sdk/lib/liblwip.a(tcp_out.o)
                                       0x1028 (size before relaxing)
                0x0000000040237f08                tcp_send_fin
                0x00000000402380f0                tcp_write
                0x000000004023842c                tcp_enqueue_flags
                0x0000000040238510                tcp_send_empty_ack
                0x00000000402385a4                tcp_output
                0x00000000402388b4                tcp_rst
                0x00000000402389f4                tcp_rexmit_rto
                0x0000000040238a68                tcp_rexmit
                0x0000000040238b14                tcp_rexmit_fast
                0x0000000040238b6c                tcp_keepalive
                0x0000000040238bec                tcp_zero_window_probe
 .irom0.text    0x0000000040238d30      0x2c7 /opt/esp-open-sdk/sdk/lib/liblwip.a(timers.o)
                                        0x357 (size before relaxing)
                0x0000000040238d70                tcp_timer_needed
                0x0000000040238df8                sys_timeouts_init
                0x0000000040238e60                sys_timeout
                0x0000000040238edc                sys_untimeout
                0x0000000040238f2c                sys_check_timeouts
                0x0000000040238fe8                sys_restart_timeouts
 *fill*         0x0000000040238ff7        0x1 
 .irom0.text    0x0000000040238ff8      0x573 /opt/esp-open-sdk/sdk/lib/liblwip.a(udp.o)
                                        0x62b (size before relaxing)
                0x0000000040238ffc                udp_input
                0x0000000040239254                udp_send
                0x0000000040239268                udp_sendto
                0x00000000402392b4                udp_sendto_if
                0x00000000402393fc                udp_bind
                0x0000000040239478                udp_connect
                0x00000000402394d4                udp_disconnect
                0x00000000402394ec                udp_recv
                0x00000000402394f8                udp_remove
                0x0000000040239534                udp_new
 *fill*         0x000000004023956b        0x1 
 .irom0.text    0x000000004023956c      0x26e /opt/esp-open-sdk/sdk/lib/liblwip.a(icmp.o)
                                        0x312 (size before relaxing)
                0x0000000040239570                icmp_input
                0x000000004023971c                icmp_dest_unreach
 *fill*         0x00000000402397da        0x2 
 .irom0.text    0x00000000402397dc      0x2aa /opt/esp-open-sdk/sdk/lib/libwpa.a(ap_config.o)
                                        0x2ee (size before relaxing)
                0x00000000402397e0                hostapd_config_defaults_bss
                0x000000004023982c                hostapd_config_defaults
                0x00000000402398b0                hostapd_mac_comp
                0x00000000402398c4                hostapd_mac_comp_empty
                0x0000000040239930                hostapd_setup_wpa_psk
                0x0000000040239960                hostapd_wep_key_cmp
                0x00000000402399b0                hostapd_maclist_found
                0x0000000040239a18                hostapd_rate_found
                0x0000000040239a34                hostapd_get_psk
 *fill*         0x0000000040239a86        0x2 
 .irom0.text    0x0000000040239a88      0x2b6 /opt/esp-open-sdk/sdk/lib/libwpa.a(common.o)
                                        0x302 (size before relaxing)
                0x0000000040239a88                inc_byte_array
                0x0000000040239adc                hex2byte
                0x0000000040239b10                hexstr2bin
                0x0000000040239b5c                wpa_get_ntp_timestamp
                0x0000000040239bf4                wpa_config_parse_string
                0x0000000040239cf8                dup_binstr
 *fill*         0x0000000040239d3e        0x2 
 .irom0.text    0x0000000040239d40       0xcc /opt/esp-open-sdk/sdk/lib/libwpa.a(os_xtensa.o)
                                         0xdc (size before relaxing)
                0x0000000040239d44                ets_strdup
                0x0000000040239d88                os_get_time
                0x0000000040239d8c                r_rand
                0x0000000040239da0                os_random
                0x0000000040239db0                os_get_random
 .irom0.text    0x0000000040239e0c     0x1c86 /opt/esp-open-sdk/sdk/lib/libwpa.a(wpa_auth.o)
                                       0x1f66 (size before relaxing)
                0x0000000040239f58                wpa_auth_for_each_sta
                0x000000004023a0d8                wpa_init
                0x000000004023a168                wpa_auth_sta_init
                0x000000004023a1b0                wpa_auth_sta_associated
                0x000000004023a21c                wpa_auth_sta_no_wpa
                0x000000004023a278                wpa_auth_sta_deinit
                0x000000004023a348                wpa_receive
                0x000000004023a7ac                __wpa_send_eapol
                0x000000004023acd0                wpa_remove_ptk
                0x000000004023ad1c                wpa_auth_sm_event
 *fill*         0x000000004023ba92        0x2 
 .irom0.text    0x000000004023ba94      0x582 /opt/esp-open-sdk/sdk/lib/libwpa.a(wpa_auth_ie.o)
                                        0x5f6 (size before relaxing)
                0x000000004023bb58                wpa_write_rsn_ie
                0x000000004023bc64                wpa_auth_gen_wpa_ie
                0x000000004023bcf4                wpa_add_kde
                0x000000004023bd60                wpa_validate_wpa_ie
                0x000000004023bf6c                wpa_parse_kde_ies
                0x000000004023c008                wpa_auth_uses_mfp
 *fill*         0x000000004023c016        0x2 
 .irom0.text    0x000000004023c018     0x14d0 /opt/esp-open-sdk/sdk/lib/libwpa.a(wpa.o)
                                       0x1708 (size before relaxing)
                0x000000004023cfa4                wpa_sm_rx_eapol
                0x000000004023d11c                wpa_register
                0x000000004023d148                wpa_set_profile
                0x000000004023d160                wpa_set_pmk
                0x000000004023d18c                wpa_set_bss
                0x000000004023d390                pp_michael_mic_failure
                0x000000004023d434                eapol_txcb
                0x000000004023d4c0                wpa_sm_set_state
 .irom0.text    0x000000004023d4e8      0x76a /opt/esp-open-sdk/sdk/lib/libwpa.a(wpa_common.o)
                                        0x7fa (size before relaxing)
                0x000000004023d630                wpa_parse_wpa_ie_rsn
                0x000000004023d7c4                wpa_parse_wpa_ie_wpa
                0x000000004023d954                wpa_eapol_key_mic
                0x000000004023d994                wpa_compare_rsn_ie
                0x000000004023d9bc                wpa_pmk_to_ptk
                0x000000004023daac                rsn_pmkid
                0x000000004023db08                wpa_cipher_key_len
                0x000000004023db2c                wpa_cipher_to_alg
                0x000000004023db54                wpa_cipher_to_suite
                0x000000004023dba8                rsn_cipher_put_suites
                0x000000004023dc08                wpa_cipher_put_suites
 *fill*         0x000000004023dc52        0x2 
 .irom0.text    0x000000004023dc54       0xa8 /opt/esp-open-sdk/sdk/lib/libwpa.a(wpa_debug.o)
                                         0xac (size before relaxing)
                0x000000004023dccc                wpa_snprintf_hex_uppercase
                0x000000004023dce0                wpa_snprintf_hex
                0x000000004023dcf4                eloop_cancel_timeout
                0x000000004023dcf8                eloop_register_timeout
 .irom0.text    0x000000004023dcfc      0x325 /opt/esp-open-sdk/sdk/lib/libwpa.a(wpa_ie.o)
                                        0x341 (size before relaxing)
                0x000000004023dcfc                wpa_parse_wpa_ie
                0x000000004023ddf0                wpa_supplicant_parse_ies
                0x000000004023dff0                wpa_gen_wpa_ie
 *fill*         0x000000004023e021        0x3 
 .irom0.text    0x000000004023e024      0x420 /opt/esp-open-sdk/sdk/lib/libwpa.a(wpa_main.o)
                                        0x538 (size before relaxing)
                0x000000004023e028                ppInstallKey
                0x000000004023e1b8                wpa_config_profile
                0x000000004023e1ec                wpa_config_bss
                0x000000004023e21c                wpa_config_assoc_ie
                0x000000004023e230                dhcp_bind_check
                0x000000004023e264                eagle_auth_done
                0x000000004023e3e4                wpa_neg_complete
                0x000000004023e40c                wpa_attach
 .irom0.text    0x000000004023e444       0xd6 /opt/esp-open-sdk/sdk/lib/libwpa.a(wpas_glue.o)
                                         0xe2 (size before relaxing)
                0x000000004023e4b4                wpa_sm_alloc_eapol
                0x000000004023e4f4                wpa_sm_deauthenticate
                0x000000004023e510                wpa_sm_mlme_setprotection
                0x000000004023e514                wpa_sm_get_beacon_ie
                0x000000004023e518                wpa_sm_disassociate
 *fill*         0x000000004023e51a        0x2 
 .irom0.text    0x000000004023e51c       0xdf /opt/esp-open-sdk/sdk/lib/libwpa.a(aes-wrap.o)
                                        0x103 (size before relaxing)
                0x000000004023e51c                aes_wrap
 *fill*         0x000000004023e5fb        0x1 
 .irom0.text    0x000000004023e5fc      0x4b7 /opt/esp-open-sdk/sdk/lib/libwpa.a(aes-internal-enc.o)
                                        0x4df (size before relaxing)
                0x000000004023e600                rijndaelEncrypt
                0x000000004023ea1c                aes_encrypt_init
                0x000000004023ea70                aes_encrypt
                0x000000004023ea88                aes_encrypt_deinit
 *fill*         0x000000004023eab3        0x1 
 .irom0.text    0x000000004023eab4      0x304 /opt/esp-open-sdk/sdk/lib/libwpa.a(aes-internal.o)
                                        0x31c (size before relaxing)
                0x000000004023eab8                rijndaelKeySetupEnc
 .irom0.text    0x000000004023edb8      0x385 /opt/esp-open-sdk/sdk/lib/libjson.a(jsontree.o)
                                        0x391 (size before relaxing)
                0x000000004023edb8                jsontree_write_atom
                0x000000004023edf0                jsontree_write_string
                0x000000004023ee40                jsontree_write_int
                0x000000004023eeac                jsontree_write_int_array
                0x000000004023eefc                jsontree_setup
                0x000000004023ef14                jsontree_reset
                0x000000004023ef24                jsontree_path_name
                0x000000004023ef4c                jsontree_print_next
                0x000000004023f0fc                jsontree_find_next
 *fill*         0x000000004023f13d        0x3 
 .irom0.text    0x000000004023f140      0x187 /opt/esp-open-sdk/sdk/lib/libnet80211.a(ieee80211_crypto_tkip.o)
                                        0x197 (size before relaxing)
 *fill*         0x000000004023f2c7        0x1 
 .irom0.text    0x000000004023f2c8       0x78 /opt/esp-open-sdk/sdk/lib/libnet80211.a(ieee80211_crypto_wep.o)
                                         0x7c (size before relaxing)
 .irom0.literal
                0x000000004023f340        0x0 /opt/esp-open-sdk/sdk/lib/libmain.a(app_main.o)
 *fill*         0x000000004023f340        0x0 
 .irom.text     0x000000004023f340      0x510 /opt/esp-open-sdk/sdk/lib/libmain.a(app_main.o)
 .irom0.literal
                0x000000004023f850        0x0 /opt/esp-open-sdk/sdk/lib/libmain.a(ets_timer.o)
 *fill*         0x000000004023f850        0x0 
 .irom.text     0x000000004023f850      0x14c /opt/esp-open-sdk/sdk/lib/libmain.a(ets_timer.o)
 .irom0.literal
                0x000000004023f99c        0x0 /opt/esp-open-sdk/sdk/lib/libmain.a(mem_manager.o)
 *fill*         0x000000004023f99c        0x4 
 .irom.text     0x000000004023f9a0       0x11 /opt/esp-open-sdk/sdk/lib/libmain.a(mem_manager.o)
 *fill*         0x000000004023f9b1        0x3 
 .irom0.literal
                0x000000004023f9b4        0x0 /opt/esp-open-sdk/sdk/lib/libmain.a(spi_flash.o)
 *fill*         0x000000004023f9b4        0xc 
 .irom.text     0x000000004023f9c0      0x12f /opt/esp-open-sdk/sdk/lib/libmain.a(spi_flash.o)
 *fill*         0x000000004023faef        0x1 
 .irom0.literal
                0x000000004023faf0        0x0 /opt/esp-open-sdk/sdk/lib/libmain.a(user_interface.o)
 *fill*         0x000000004023faf0        0x0 
 .irom.text     0x000000004023faf0      0x2d5 /opt/esp-open-sdk/sdk/lib/libmain.a(user_interface.o)
                0x000000004023fb10                default_ssid
 *fill*         0x000000004023fdc5        0x3 
 .irom0.literal
                0x000000004023fdc8        0x0 /opt/esp-open-sdk/sdk/lib/libmain.a(eagle_lib.o)
 .irom0.literal
                0x000000004023fdc8        0x0 /opt/esp-open-sdk/sdk/lib/libmain.a(eagle_lwip_if.o)
 *fill*         0x000000004023fdc8        0x8 
 .irom.text     0x000000004023fdd0       0x63 /opt/esp-open-sdk/sdk/lib/libmain.a(eagle_lwip_if.o)
 *fill*         0x000000004023fe33        0x1 
 .irom0.literal
                0x000000004023fe34        0x0 build/app_app.a(user_main.o)
 *fill*         0x000000004023fe34        0x0 
 .irom0.literal
                0x000000004023fe34        0x0 build/app_app.a(esp_nano_httpd.o)
 *fill*         0x000000004023fe34        0x0 
 .irom0.literal
                0x000000004023fe34        0x0 build/app_app.a(nano_httpd_wifi_util.o)
 *fill*         0x000000004023fe34        0x0 
 .irom0.literal
                0x000000004023fe34        0x0 /opt/esp-open-sdk/sdk/lib/libpp.a(if_hwctrl.o)
 *fill*         0x000000004023fe34        0xc 
 .irom.text     0x000000004023fe40       0x50 /opt/esp-open-sdk/sdk/lib/libpp.a(if_hwctrl.o)
 .irom0.literal
                0x000000004023fe90        0x0 /opt/esp-open-sdk/sdk/lib/libpp.a(lmac.o)
 *fill*         0x000000004023fe90        0x0 
 .irom.text     0x000000004023fe90       0x2f /opt/esp-open-sdk/sdk/lib/libpp.a(lmac.o)
 *fill*         0x000000004023febf        0x1 
 .irom0.literal
                0x000000004023fec0        0x0 /opt/esp-open-sdk/sdk/lib/libpp.a(pm.o)
 *fill*         0x000000004023fec0        0x0 
 .irom.text     0x000000004023fec0      0x16d /opt/esp-open-sdk/sdk/lib/libpp.a(pm.o)
 *fill*         0x000000004024002d        0x3 
 .irom0.literal
                0x0000000040240030        0x0 /opt/esp-open-sdk/sdk/lib/libpp.a(pm_for_bcn_only_mode.o)
 *fill*         0x0000000040240030        0x0 
 .irom.text     0x0000000040240030      0x118 /opt/esp-open-sdk/sdk/lib/libpp.a(pm_for_bcn_only_mode.o)
 .irom0.literal
                0x0000000040240148        0x0 /opt/esp-open-sdk/sdk/lib/libpp.a(pp.o)
 *fill*         0x0000000040240148        0x8 
 .irom.text     0x0000000040240150       0x5b /opt/esp-open-sdk/sdk/lib/libpp.a(pp.o)
 *fill*         0x00000000402401ab        0x1 
 .irom0.literal
                0x00000000402401ac        0x0 /opt/esp-open-sdk/sdk/lib/libpp.a(rate_control.o)
 *fill*         0x00000000402401ac        0x0 
 .irom0.literal
                0x00000000402401ac        0x0 /opt/esp-open-sdk/sdk/lib/libpp.a(trc.o)
 *fill*         0x00000000402401ac        0x4 
 .irom.text     0x00000000402401b0       0x38 /opt/esp-open-sdk/sdk/lib/libpp.a(trc.o)
 .irom0.literal
                0x00000000402401e8        0x0 /opt/esp-open-sdk/sdk/lib/libpp.a(wdev.o)
 *fill*         0x00000000402401e8        0x0 
 .irom.text     0x00000000402401e8        0x7 /opt/esp-open-sdk/sdk/lib/libpp.a(wdev.o)
 *fill*         0x00000000402401ef        0x1 
 .irom0.literal
                0x00000000402401f0        0x0 /opt/esp-open-sdk/sdk/lib/libpp.a(esf_buf.o)
 *fill*         0x00000000402401f0        0x0 
 .irom.text     0x00000000402401f0        0xa /opt/esp-open-sdk/sdk/lib/libpp.a(esf_buf.o)
 *fill*         0x00000000402401fa        0x2 
 .irom0.literal
                0x00000000402401fc        0x0 /opt/esp-open-sdk/sdk/lib/libphy.a(phy.o)
 *fill*         0x00000000402401fc        0x0 
 .irom0.literal
                0x00000000402401fc        0x0 /opt/esp-open-sdk/sdk/lib/libphy.a(phy_chip_v6_ana.o)
 *fill*         0x00000000402401fc        0x4 
 .irom.text     0x0000000040240200       0x65 /opt/esp-open-sdk/sdk/lib/libphy.a(phy_chip_v6_ana.o)
 *fill*         0x0000000040240265        0x3 
 .irom0.literal
                0x0000000040240268        0x0 /opt/esp-open-sdk/sdk/lib/libphy.a(phy_chip_v6.o)
 *fill*         0x0000000040240268        0x8 
 .irom.text     0x0000000040240270      0x14c /opt/esp-open-sdk/sdk/lib/libphy.a(phy_chip_v6.o)
 .irom0.literal
                0x00000000402403bc        0x0 /opt/esp-open-sdk/sdk/lib/libphy.a(phy_chip_v6_cal.o)
 *fill*         0x00000000402403bc        0x4 
 .irom.text     0x00000000402403c0      0x1f4 /opt/esp-open-sdk/sdk/lib/libphy.a(phy_chip_v6_cal.o)
 .irom0.literal
                0x00000000402405b4        0x0 /opt/esp-open-sdk/sdk/lib/libphy.a(phy_chip_v6_unused.o)
 .irom0.text    0x00000000402405b4        0xc /opt/esp-open-sdk/sdk/lib/libphy.a(phy_chip_v6_unused.o)
                0x00000000402405b4                chip_v6_set_sense
                0x00000000402405b8                chip_v6_get_sense
                0x00000000402405bc                chip_v6_unset_chanfreq
 .irom0.literal
                0x00000000402405c0        0x0 /opt/esp-open-sdk/sdk/lib/libphy.a(phy_sleep.o)
 *fill*         0x00000000402405c0        0x0 
 .irom0.literal
                0x00000000402405c0        0x0 /opt/esp-open-sdk/sdk/lib/libnet80211.a(ieee80211.o)
 *fill*         0x00000000402405c0        0x0 
 .irom.text     0x00000000402405c0       0x82 /opt/esp-open-sdk/sdk/lib/libnet80211.a(ieee80211.o)
                0x00000000402405d0                ieee80211_opcap
 *fill*         0x0000000040240642        0x2 
 .irom0.literal
                0x0000000040240644        0x0 /opt/esp-open-sdk/sdk/lib/libnet80211.a(ieee80211_crypto.o)
 *fill*         0x0000000040240644        0x0 
 .irom0.literal
                0x0000000040240644        0x0 /opt/esp-open-sdk/sdk/lib/libnet80211.a(ieee80211_ets.o)
 .irom0.literal
                0x0000000040240644        0x0 /opt/esp-open-sdk/sdk/lib/libnet80211.a(ieee80211_hostap.o)
 *fill*         0x0000000040240644        0xc 
 .irom.text     0x0000000040240650       0x4b /opt/esp-open-sdk/sdk/lib/libnet80211.a(ieee80211_hostap.o)
 *fill*         0x000000004024069b        0x1 
 .irom0.literal
                0x000000004024069c        0x0 /opt/esp-open-sdk/sdk/lib/libnet80211.a(ieee80211_ht.o)
 *fill*         0x000000004024069c        0x4 
 .irom.text     0x00000000402406a0       0x19 /opt/esp-open-sdk/sdk/lib/libnet80211.a(ieee80211_ht.o)
 *fill*         0x00000000402406b9        0x3 
 .irom0.literal
                0x00000000402406bc        0x0 /opt/esp-open-sdk/sdk/lib/libnet80211.a(ieee80211_input.o)
 *fill*         0x00000000402406bc        0x4 
 .irom.text     0x00000000402406c0       0x12 /opt/esp-open-sdk/sdk/lib/libnet80211.a(ieee80211_input.o)
 *fill*         0x00000000402406d2        0x2 
 .irom0.literal
                0x00000000402406d4        0x0 /opt/esp-open-sdk/sdk/lib/libnet80211.a(ieee80211_mesh_quick.o)
 *fill*         0x00000000402406d4        0xc 
 .irom.text     0x00000000402406e0       0x43 /opt/esp-open-sdk/sdk/lib/libnet80211.a(ieee80211_mesh_quick.o)
 *fill*         0x0000000040240723        0x1 
 .irom0.literal
                0x0000000040240724        0x0 /opt/esp-open-sdk/sdk/lib/libnet80211.a(ieee80211_output.o)
 *fill*         0x0000000040240724        0xc 
 .irom.text     0x0000000040240730       0x3d /opt/esp-open-sdk/sdk/lib/libnet80211.a(ieee80211_output.o)
 *fill*         0x000000004024076d        0x3 
 .irom0.literal
                0x0000000040240770        0x0 /opt/esp-open-sdk/sdk/lib/libnet80211.a(ieee80211_phy.o)
 *fill*         0x0000000040240770        0x0 
 .irom.text     0x0000000040240770      0x1b8 /opt/esp-open-sdk/sdk/lib/libnet80211.a(ieee80211_phy.o)
 .irom0.literal
                0x0000000040240928        0x0 /opt/esp-open-sdk/sdk/lib/libnet80211.a(ieee80211_power.o)
 *fill*         0x0000000040240928        0x0 
 .irom0.literal
                0x0000000040240928        0x0 /opt/esp-open-sdk/sdk/lib/libnet80211.a(ieee80211_proto.o)
 *fill*         0x0000000040240928        0x8 
 .irom.text     0x0000000040240930       0x1c /opt/esp-open-sdk/sdk/lib/libnet80211.a(ieee80211_proto.o)
 .irom0.literal
                0x000000004024094c        0x0 /opt/esp-open-sdk/sdk/lib/libnet80211.a(ieee80211_regdomain.o)
 *fill*         0x000000004024094c        0x4 
 .irom.text     0x0000000040240950       0x2b /opt/esp-open-sdk/sdk/lib/libnet80211.a(ieee80211_regdomain.o)
 *fill*         0x000000004024097b        0x1 
 .irom0.literal
                0x000000004024097c        0x0 /opt/esp-open-sdk/sdk/lib/libnet80211.a(ieee80211_rfid.o)
 *fill*         0x000000004024097c        0x0 
 .irom0.literal
                0x000000004024097c        0x0 /opt/esp-open-sdk/sdk/lib/libnet80211.a(ieee80211_scan.o)
 *fill*         0x000000004024097c        0x4 
 .irom.text     0x0000000040240980       0x99 /opt/esp-open-sdk/sdk/lib/libnet80211.a(ieee80211_scan.o)
 *fill*         0x0000000040240a19        0x3 
 .irom0.literal
                0x0000000040240a1c        0x0 /opt/esp-open-sdk/sdk/lib/libnet80211.a(ieee80211_sta.o)
 *fill*         0x0000000040240a1c        0x4 
 .irom.text     0x0000000040240a20       0x26 /opt/esp-open-sdk/sdk/lib/libnet80211.a(ieee80211_sta.o)
 *fill*         0x0000000040240a46        0x2 
 .irom0.literal
                0x0000000040240a48        0x0 /opt/esp-open-sdk/sdk/lib/libnet80211.a(wl_chm.o)
 *fill*         0x0000000040240a48        0x0 
 .irom0.literal
                0x0000000040240a48        0x0 /opt/esp-open-sdk/sdk/lib/libnet80211.a(wl_cnx.o)
 *fill*         0x0000000040240a48        0x8 
 .irom.text     0x0000000040240a50      0x1a7 /opt/esp-open-sdk/sdk/lib/libnet80211.a(wl_cnx.o)
 *fill*         0x0000000040240bf7        0x1 
 .irom0.literal
                0x0000000040240bf8        0x0 /opt/esp-open-sdk/sdk/lib/libnet80211.a(ieee80211_action.o)
 *fill*         0x0000000040240bf8        0x0 
 .irom0.literal
                0x0000000040240bf8        0x0 /opt/esp-open-sdk/sdk/lib/libnet80211.a(ieee80211_action_vendor.o)
 *fill*         0x0000000040240bf8        0x8 
 .irom.text     0x0000000040240c00       0xe3 /opt/esp-open-sdk/sdk/lib/libnet80211.a(ieee80211_action_vendor.o)
 *fill*         0x0000000040240ce3        0x1 
 .irom0.literal
                0x0000000040240ce4        0x0 /opt/esp-open-sdk/sdk/lib/libnet80211.a(ieee80211_crypto_ccmp.o)
 *fill*         0x0000000040240ce4        0x0 
 .irom.text     0x0000000040240ce4       0x18 /opt/esp-open-sdk/sdk/lib/libnet80211.a(ieee80211_crypto_ccmp.o)
                0x0000000040240ce4                ccmp
 .irom0.literal
                0x0000000040240cfc        0x0 /opt/esp-open-sdk/sdk/lib/libnet80211.a(ieee80211_ie_vendor.o)
 *fill*         0x0000000040240cfc        0x0 
 .irom0.literal
                0x0000000040240cfc        0x0 /opt/esp-open-sdk/sdk/lib/liblwip.a(dhcp.o)
 *fill*         0x0000000040240cfc        0x4 
 .irom.text     0x0000000040240d00       0x1e /opt/esp-open-sdk/sdk/lib/liblwip.a(dhcp.o)
 *fill*         0x0000000040240d1e        0x2 
 .irom0.literal
                0x0000000040240d20        0x0 /opt/esp-open-sdk/sdk/lib/liblwip.a(dhcpserver.o)
 *fill*         0x0000000040240d20        0x0 
 .irom.text     0x0000000040240d20       0x45 /opt/esp-open-sdk/sdk/lib/liblwip.a(dhcpserver.o)
 *fill*         0x0000000040240d65        0x3 
 .irom0.literal
                0x0000000040240d68        0x0 /opt/esp-open-sdk/sdk/lib/liblwip.a(dns.o)
 *fill*         0x0000000040240d68        0x0 
 .irom.text     0x0000000040240d68        0x6 /opt/esp-open-sdk/sdk/lib/liblwip.a(dns.o)
 *fill*         0x0000000040240d6e        0x2 
 .irom0.literal
                0x0000000040240d70        0x0 /opt/esp-open-sdk/sdk/lib/liblwip.a(espconn.o)
 *fill*         0x0000000040240d70        0x0 
 .irom.text     0x0000000040240d70        0xa /opt/esp-open-sdk/sdk/lib/liblwip.a(espconn.o)
 *fill*         0x0000000040240d7a        0x2 
 .irom0.literal
                0x0000000040240d7c        0x0 /opt/esp-open-sdk/sdk/lib/liblwip.a(espconn_tcp.o)
 *fill*         0x0000000040240d7c        0x4 
 .irom.text     0x0000000040240d80       0xab /opt/esp-open-sdk/sdk/lib/liblwip.a(espconn_tcp.o)
 *fill*         0x0000000040240e2b        0x1 
 .irom0.literal
                0x0000000040240e2c        0x0 /opt/esp-open-sdk/sdk/lib/liblwip.a(espconn_udp.o)
 *fill*         0x0000000040240e2c        0x4 
 .irom.text     0x0000000040240e30        0xe /opt/esp-open-sdk/sdk/lib/liblwip.a(espconn_udp.o)
 *fill*         0x0000000040240e3e        0x2 
 .irom0.literal
                0x0000000040240e40        0x0 /opt/esp-open-sdk/sdk/lib/liblwip.a(etharp.o)
 *fill*         0x0000000040240e40        0x0 
 .irom.text     0x0000000040240e40        0x9 /opt/esp-open-sdk/sdk/lib/liblwip.a(etharp.o)
 *fill*         0x0000000040240e49        0x3 
 .irom0.literal
                0x0000000040240e4c        0x0 /opt/esp-open-sdk/sdk/lib/liblwip.a(igmp.o)
 *fill*         0x0000000040240e4c        0x4 
 .irom.text     0x0000000040240e50        0x7 /opt/esp-open-sdk/sdk/lib/liblwip.a(igmp.o)
 *fill*         0x0000000040240e57        0x1 
 .irom0.literal
                0x0000000040240e58        0x0 /opt/esp-open-sdk/sdk/lib/liblwip.a(inet_chksum.o)
 .irom0.text    0x0000000040240e58      0x298 /opt/esp-open-sdk/sdk/lib/liblwip.a(inet_chksum.o)
                0x0000000040240ed0                inet_chksum_pseudo
                0x0000000040240f90                inet_chksum_pseudo_partial
                0x000000004024106c                inet_chksum
                0x0000000040241084                inet_chksum_pbuf
 .irom0.literal
                0x00000000402410f0        0x0 /opt/esp-open-sdk/sdk/lib/liblwip.a(init.o)
 .irom0.literal
                0x00000000402410f0        0x0 /opt/esp-open-sdk/sdk/lib/liblwip.a(ip_addr.o)
 *fill*         0x00000000402410f0        0x0 
 .irom.text     0x00000000402410f0        0x8 /opt/esp-open-sdk/sdk/lib/liblwip.a(ip_addr.o)
                0x00000000402410f0                ip_addr_any
                0x00000000402410f4                ip_addr_broadcast
 .irom0.literal
                0x00000000402410f8        0x0 /opt/esp-open-sdk/sdk/lib/liblwip.a(ip.o)
 *fill*         0x00000000402410f8        0x8 
 .irom.text     0x0000000040241100       0x11 /opt/esp-open-sdk/sdk/lib/liblwip.a(ip.o)
 *fill*         0x0000000040241111        0xf 
 .irom.text     0x0000000040241120       0x28 /opt/esp-open-sdk/sdk/lib/liblwip.a(memp.o)
                0x0000000040241120                memp_sizes
 .irom0.literal
                0x0000000040241148        0x0 /opt/esp-open-sdk/sdk/lib/liblwip.a(netif.o)
 *fill*         0x0000000040241148        0x0 
 .irom0.literal
                0x0000000040241148        0x0 /opt/esp-open-sdk/sdk/lib/liblwip.a(pbuf.o)
 *fill*         0x0000000040241148        0x0 
 .irom.text     0x0000000040241148        0x7 /opt/esp-open-sdk/sdk/lib/liblwip.a(pbuf.o)
 *fill*         0x000000004024114f        0x1 
 .irom0.literal
                0x0000000040241150        0x0 /opt/esp-open-sdk/sdk/lib/liblwip.a(raw.o)
 *fill*         0x0000000040241150        0x0 
 .irom.text     0x0000000040241150        0x6 /opt/esp-open-sdk/sdk/lib/liblwip.a(raw.o)
 *fill*         0x0000000040241156        0x2 
 .irom0.literal
                0x0000000040241158        0x0 /opt/esp-open-sdk/sdk/lib/liblwip.a(tcp_in.o)
 *fill*         0x0000000040241158        0x8 
 .irom.text     0x0000000040241160        0x9 /opt/esp-open-sdk/sdk/lib/liblwip.a(tcp_in.o)
 *fill*         0x0000000040241169        0x3 
 .irom0.literal
                0x000000004024116c        0x0 /opt/esp-open-sdk/sdk/lib/liblwip.a(tcp.o)
 *fill*         0x000000004024116c        0x4 
 .irom.text     0x0000000040241170       0x3d /opt/esp-open-sdk/sdk/lib/liblwip.a(tcp.o)
                0x0000000040241180                tcp_pcb_lists
                0x0000000040241190                tcp_persist_backoff
                0x00000000402411a0                tcp_backoff
 *fill*         0x00000000402411ad        0x3 
 .irom0.literal
                0x00000000402411b0        0x0 /opt/esp-open-sdk/sdk/lib/liblwip.a(tcp_out.o)
 *fill*         0x00000000402411b0        0x0 
 .irom.text     0x00000000402411b0        0xa /opt/esp-open-sdk/sdk/lib/liblwip.a(tcp_out.o)
 *fill*         0x00000000402411ba        0x2 
 .irom0.literal
                0x00000000402411bc        0x0 /opt/esp-open-sdk/sdk/lib/liblwip.a(timers.o)
 *fill*         0x00000000402411bc        0x4 
 .irom.text     0x00000000402411c0        0x9 /opt/esp-open-sdk/sdk/lib/liblwip.a(timers.o)
 *fill*         0x00000000402411c9        0x3 
 .irom0.literal
                0x00000000402411cc        0x0 /opt/esp-open-sdk/sdk/lib/liblwip.a(udp.o)
 *fill*         0x00000000402411cc        0x4 
 .irom.text     0x00000000402411d0        0x6 /opt/esp-open-sdk/sdk/lib/liblwip.a(udp.o)
 *fill*         0x00000000402411d6        0xa 
 .irom.text     0x00000000402411e0       0x57 /opt/esp-open-sdk/sdk/lib/liblwip.a(espconn_buf.o)
 *fill*         0x0000000040241237        0x1 
 .irom0.literal
                0x0000000040241238        0x0 /opt/esp-open-sdk/sdk/lib/liblwip.a(icmp.o)
 *fill*         0x0000000040241238        0x0 
 .irom0.literal
                0x0000000040241238        0x0 /opt/esp-open-sdk/sdk/lib/libwpa.a(ap_config.o)
 *fill*         0x0000000040241238        0x8 
 .irom.text     0x0000000040241240        0xc /opt/esp-open-sdk/sdk/lib/libwpa.a(ap_config.o)
 .irom0.literal
                0x000000004024124c        0x0 /opt/esp-open-sdk/sdk/lib/libwpa.a(common.o)
 *fill*         0x000000004024124c        0x4 
 .irom.text     0x0000000040241250        0x9 /opt/esp-open-sdk/sdk/lib/libwpa.a(common.o)
 *fill*         0x0000000040241259        0x3 
 .irom0.literal
                0x000000004024125c        0x0 /opt/esp-open-sdk/sdk/lib/libwpa.a(os_xtensa.o)
 *fill*         0x000000004024125c        0x4 
 .irom.text     0x0000000040241260        0xc /opt/esp-open-sdk/sdk/lib/libwpa.a(os_xtensa.o)
 .irom0.literal
                0x000000004024126c        0x0 /opt/esp-open-sdk/sdk/lib/libwpa.a(wpa_auth.o)
 *fill*         0x000000004024126c        0x4 
 .irom.text     0x0000000040241270       0x74 /opt/esp-open-sdk/sdk/lib/libwpa.a(wpa_auth.o)
 .irom0.literal
                0x00000000402412e4        0x0 /opt/esp-open-sdk/sdk/lib/libwpa.a(wpa_auth_ie.o)
 *fill*         0x00000000402412e4        0xc 
 .irom.text     0x00000000402412f0        0xe /opt/esp-open-sdk/sdk/lib/libwpa.a(wpa_auth_ie.o)
 *fill*         0x00000000402412fe        0x2 
 .irom0.literal
                0x0000000040241300        0x0 /opt/esp-open-sdk/sdk/lib/libwpa.a(wpa.o)
 *fill*         0x0000000040241300        0x0 
 .irom.text     0x0000000040241300       0x17 /opt/esp-open-sdk/sdk/lib/libwpa.a(wpa.o)
 *fill*         0x0000000040241317        0x1 
 .irom0.literal
                0x0000000040241318        0x0 /opt/esp-open-sdk/sdk/lib/libwpa.a(wpa_common.o)
 *fill*         0x0000000040241318        0x8 
 .irom.text     0x0000000040241320       0x1c /opt/esp-open-sdk/sdk/lib/libwpa.a(wpa_common.o)
 .irom0.literal
                0x000000004024133c        0x0 /opt/esp-open-sdk/sdk/lib/libwpa.a(wpa_debug.o)
 .irom0.literal
                0x000000004024133c        0x0 /opt/esp-open-sdk/sdk/lib/libwpa.a(wpa_ie.o)
 *fill*         0x000000004024133c        0x0 
 .irom0.literal
                0x000000004024133c        0x0 /opt/esp-open-sdk/sdk/lib/libwpa.a(wpa_main.o)
 *fill*         0x000000004024133c        0x4 
 .irom.text     0x0000000040241340       0x67 /opt/esp-open-sdk/sdk/lib/libwpa.a(wpa_main.o)
 *fill*         0x00000000402413a7        0x1 
 .irom0.literal
                0x00000000402413a8        0x0 /opt/esp-open-sdk/sdk/lib/libwpa.a(wpas_glue.o)
 *fill*         0x00000000402413a8        0x0 
 .irom0.literal
                0x00000000402413a8        0x0 /opt/esp-open-sdk/sdk/lib/libwpa.a(aes-wrap.o)
 *fill*         0x00000000402413a8        0x0 
 .irom0.literal
                0x00000000402413a8        0x0 /opt/esp-open-sdk/sdk/lib/libwpa.a(aes-internal-enc.o)
 *fill*         0x00000000402413a8        0x8 
 .irom.text     0x00000000402413b0       0x13 /opt/esp-open-sdk/sdk/lib/libwpa.a(aes-internal-enc.o)
 *fill*         0x00000000402413c3        0x1 
 .irom0.literal
                0x00000000402413c4        0x0 /opt/esp-open-sdk/sdk/lib/libwpa.a(aes-internal.o)
 .irom0.literal
                0x00000000402413c4        0x0 /opt/esp-open-sdk/sdk/lib/libjson.a(jsontree.o)
 *fill*         0x00000000402413c4        0x0 
 .irom0.literal
                0x00000000402413c4        0x0 /opt/esp-open-sdk/sdk/lib/libnet80211.a(ieee80211_crypto_tkip.o)
 *fill*         0x00000000402413c4        0x0 
 .irom.text     0x00000000402413c4       0x18 /opt/esp-open-sdk/sdk/lib/libnet80211.a(ieee80211_crypto_tkip.o)
                0x00000000402413c4                tkip
 .irom0.literal
                0x00000000402413dc        0x0 /opt/esp-open-sdk/sdk/lib/libnet80211.a(ieee80211_crypto_wep.o)
 .irom.text     0x00000000402413dc       0x18 /opt/esp-open-sdk/sdk/lib/libnet80211.a(ieee80211_crypto_wep.o)
                0x00000000402413dc                wep
                0x00000000402413f4                _irom0_text_end = ABSOLUTE (.)

.text           0x0000000040100000     0x7050
                0x0000000040100000                _stext = .
                0x0000000040100000                _text_start = ABSOLUTE (.)
 *(.UserEnter.text)
 .UserEnter.text
                0x0000000040100000        0xd /opt/esp-open-sdk/sdk/lib/libmain.a(vector.o)
                                         0x14 (size before relaxing)
                0x0000000040100004                call_user_start
                0x0000000040100010                . = ALIGN (0x10)
 *fill*         0x000000004010000d        0x3 
 *(.DebugExceptionVector.text)
 .DebugExceptionVector.text
                0x0000000040100010        0x6 /opt/esp-open-sdk/sdk/lib/libmain.a(debug-vector.o)
                0x0000000040100010                _DebugExceptionVector
                0x0000000040100020                . = ALIGN (0x10)
 *fill*         0x0000000040100016        0xa 
 *(.NMIExceptionVector.text)
 .NMIExceptionVector.text
                0x0000000040100020        0x6 /opt/esp-open-sdk/sdk/lib/libmain.a(nmi-vector.o)
                                          0xd (size before relaxing)
                0x0000000040100020                _NMIExceptionVector
                0x0000000040100030                . = ALIGN (0x10)
 *fill*         0x0000000040100026        0xa 
 *(.KernelExceptionVector.text)
 .KernelExceptionVector.text
                0x0000000040100030        0x6 /opt/esp-open-sdk/sdk/lib/libmain.a(kernel-vector.o)
                0x0000000040100030                _KernelExceptionVector
                0x0000000040100036        0x4 LONG 0x0
                0x000000004010003a        0x4 LONG 0x0
                0x000000004010003e        0x4 LONG 0x0
                0x0000000040100042        0x4 LONG 0x0
                0x0000000040100050                . = ALIGN (0x10)
 *fill*         0x0000000040100046        0xa 
 *(.UserExceptionVector.text)
 .UserExceptionVector.text
                0x0000000040100050        0x6 /opt/esp-open-sdk/sdk/lib/libmain.a(user-vector.o)
                                          0xd (size before relaxing)
                0x0000000040100050                _UserExceptionVector
                0x0000000040100056        0x4 LONG 0x0
                0x000000004010005a        0x4 LONG 0x0
                0x000000004010005e        0x4 LONG 0x0
                0x0000000040100062        0x4 LONG 0x0
                0x0000000040100070                . = ALIGN (0x10)
 *fill*         0x0000000040100066        0xa 
 *(.DoubleExceptionVector.text)
 .DoubleExceptionVector.text
                0x0000000040100070        0x6 /opt/esp-open-sdk/sdk/lib/libmain.a(double-vector.o)
                0x0000000040100070                _DoubleExceptionVector
                0x0000000040100076        0x4 LONG 0x0
                0x000000004010007a        0x4 LONG 0x0
                0x000000004010007e        0x4 LONG 0x0
                0x0000000040100082        0x4 LONG 0x0
                0x0000000040100090                . = ALIGN (0x10)
 *fill*         0x0000000040100086        0xa 
 *(.entry.text)
 *(.init.literal)
 *(.init)
 *(.literal .text .literal.* .text.* .stub .gnu.warning .gnu.linkonce.literal.* .gnu.linkonce.t.*.literal .gnu.linkonce.t.*)
 .text          0x0000000040100090       0xc7 /opt/esp-open-sdk/sdk/lib/libmain.a(nmi-vector.o)
                                         0xcb (size before relaxing)
                0x000000004010009c                _NMILevelVector
 *fill*         0x0000000040100157        0x1 
 .text          0x0000000040100158       0x1e /opt/esp-open-sdk/sdk/lib/libmain.a(user-vector.o)
                0x000000004010015c                _UserExceptionVector_1
 *fill*         0x0000000040100176        0x2 
 .text          0x0000000040100178      0x67a /opt/esp-open-sdk/sdk/lib/libmain.a(app_main.o)
                                        0x6f6 (size before relaxing)
                0x00000000401001b0                Cache_Read_Enable_New
                0x00000000401001ec                NmiTimSetFunc
                0x0000000040100210                NMI_Handler
                0x0000000040100268                call_user_start_local
                0x00000000401003c8                wdt_feed
 *fill*         0x00000000401007f2        0x2 
 .text          0x00000000401007f4      0x3cc /opt/esp-open-sdk/sdk/lib/libmain.a(ets_timer.o)
                                        0x450 (size before relaxing)
                0x00000000401008c8                ets_timer_setfn
                0x00000000401009a4                ets_timer_disarm
                0x0000000040100a54                ets_timer_arm_new
 .text          0x0000000040100bc0      0x30f /opt/esp-open-sdk/sdk/lib/libmain.a(mem_manager.o)
                                        0x367 (size before relaxing)
                0x0000000040100bc4                prvInsertBlockIntoUsedList
                0x0000000040100bf4                system_show_malloc
                0x0000000040100bf4                pvShowMalloc
                0x0000000040100c80                prvRemoveBlockFromUsedList
                0x0000000040100cac                xPortWantedSizeAlign
                0x0000000040100cd4                pvPortMalloc
                0x0000000040100d9c                vPortFree
                0x0000000040100df4                pvPortCalloc
                0x0000000040100e24                pvPortZalloc
                0x0000000040100e40                pvPortRealloc
 *fill*         0x0000000040100ecf        0x1 
 .text          0x0000000040100ed0      0x9b3 /opt/esp-open-sdk/sdk/lib/libmain.a(spi_flash.o)
                                        0xb1f (size before relaxing)
                0x0000000040100ed4                Cache_Read_Disable_2
                0x0000000040100f14                Cache_Read_Enable_2
                0x0000000040100f64                spi_flash_get_unique_id
                0x00000000401010c8                spi_flash_get_id
                0x0000000040101124                spi_flash_read_status
                0x0000000040101158                spi_flash_write_status
                0x00000000401011c0                flash_gd25q32c_read_status
                0x0000000040101354                flash_gd25q32c_write_status
                0x00000000401014e0                spi_flash_check_wr_protect
                0x0000000040101574                spi_flash_erase_sector
                0x00000000401015a4                spi_flash_enable_qmode
                0x00000000401015d4                spi_flash_write
                0x0000000040101628                spi_flash_read
                0x0000000040101694                spi_flash_issi_enable_QIO_mode
                0x0000000040101834                flash_gd25q32c_enable_QIO_mode
 *fill*         0x0000000040101883        0x1 
 .text          0x0000000040101884      0x336 /opt/esp-open-sdk/sdk/lib/libmain.a(user_interface.o)
                                        0x39e (size before relaxing)
                0x00000000401018a0                os_printf_plus
                0x00000000401019cc                system_restart_core
                0x0000000040101a0c                system_deep_sleep_local_2
                0x0000000040101ac0                system_get_time
                0x0000000040101ad8                system_os_post
                0x0000000040101b0c                system_rtc_mem_write
                0x0000000040101b64                system_rtc_mem_read
 *fill*         0x0000000040101bba        0x2 
 .literal       0x0000000040101bbc        0x0 /opt/esp-open-sdk/sdk/lib/libmain.a(user_rf_cal_sector_set.o)
                                          0x4 (size before relaxing)
 .literal       0x0000000040101bbc        0x0 /opt/esp-open-sdk/xtensa-lx106-elf/lib/gcc/xtensa-lx106-elf/4.8.5/../../../../xtensa-lx106-elf/lib/libc.a(lib_a-atoi.o)
                                          0x8 (size before relaxing)
 .literal       0x0000000040101bbc       0x14 /opt/esp-open-sdk/xtensa-lx106-elf/lib/gcc/xtensa-lx106-elf/4.8.5/../../../../xtensa-lx106-elf/lib/libc.a(lib_a-strcmp.o)
                                         0x20 (size before relaxing)
 .literal       0x0000000040101bd0        0x0 /opt/esp-open-sdk/xtensa-lx106-elf/lib/gcc/xtensa-lx106-elf/4.8.5/../../../../xtensa-lx106-elf/lib/libc.a(lib_a-strlen.o)
                                          0xc (size before relaxing)
 .literal       0x0000000040101bd0        0x4 /opt/esp-open-sdk/xtensa-lx106-elf/lib/gcc/xtensa-lx106-elf/4.8.5/../../../../xtensa-lx106-elf/lib/libc.a(lib_a-strtok.o)
                                          0x8 (size before relaxing)
 .literal       0x0000000040101bd4        0xc /opt/esp-open-sdk/xtensa-lx106-elf/lib/gcc/xtensa-lx106-elf/4.8.5/../../../../xtensa-lx106-elf/lib/libc.a(lib_a-strtol.o)
                                         0x18 (size before relaxing)
 .literal       0x0000000040101be0        0x4 /opt/esp-open-sdk/sdk/lib/libgcc.a(_mulsf3.o)
                                         0x10 (size before relaxing)
 .literal       0x0000000040101be4        0x0 /opt/esp-open-sdk/sdk/lib/libgcc.a(_divsf3.o)
                                         0x10 (size before relaxing)
 .literal       0x0000000040101be4        0x0 /opt/esp-open-sdk/sdk/lib/libgcc.a(_fixsfsi.o)
                                          0x4 (size before relaxing)
 .text          0x0000000040101be4       0x29 /opt/esp-open-sdk/sdk/lib/libmain.a(user_rf_cal_sector_set.o)
                0x0000000040101be4                user_rf_cal_sector_set
 *fill*         0x0000000040101c0d        0x3 
 .text          0x0000000040101c10       0x39 build/app_app.a(user_main.o)
                                         0x41 (size before relaxing)
                0x0000000040101c14                blink_fun
 *fill*         0x0000000040101c49        0x3 
 .text          0x0000000040101c4c       0x27 /opt/esp-open-sdk/xtensa-lx106-elf/lib/gcc/xtensa-lx106-elf/4.8.5/../../../../xtensa-lx106-elf/lib/libc.a(lib_a-atoi.o)
                                         0x2f (size before relaxing)
                0x0000000040101c4c                atoi
                0x0000000040101c60                _atoi_r
 *fill*         0x0000000040101c73        0x1 
 .text          0x0000000040101c74       0xff /opt/esp-open-sdk/xtensa-lx106-elf/lib/gcc/xtensa-lx106-elf/4.8.5/../../../../xtensa-lx106-elf/lib/libc.a(lib_a-strcmp.o)
                0x0000000040101c74                strcmp
 *fill*         0x0000000040101d73        0x1 
 .text          0x0000000040101d74       0x5b /opt/esp-open-sdk/xtensa-lx106-elf/lib/gcc/xtensa-lx106-elf/4.8.5/../../../../xtensa-lx106-elf/lib/libc.a(lib_a-strlen.o)
                0x0000000040101d74                strlen
 *fill*         0x0000000040101dcf        0x1 
 .text          0x0000000040101dd0       0x1c /opt/esp-open-sdk/xtensa-lx106-elf/lib/gcc/xtensa-lx106-elf/4.8.5/../../../../xtensa-lx106-elf/lib/libc.a(lib_a-strtok.o)
                0x0000000040101dd0                strtok
 .text          0x0000000040101dec      0x15f /opt/esp-open-sdk/xtensa-lx106-elf/lib/gcc/xtensa-lx106-elf/4.8.5/../../../../xtensa-lx106-elf/lib/libc.a(lib_a-strtol.o)
                0x0000000040101dec                _strtol_r
                0x0000000040101f2c                strtol
 *fill*         0x0000000040101f4b        0x1 
 .text          0x0000000040101f4c     0x161e /opt/esp-open-sdk/sdk/lib/libpp.a(lmac.o)
                                       0x1982 (size before relaxing)
                0x0000000040101f50                lmacIsActive
                0x0000000040101f64                lmacIsIdle
                0x00000000401023e4                lmacSetAcParam
                0x0000000040102438                lmacProcessTXStartData
                0x00000000401025e4                lmacProcessTxSuccess
                0x0000000040102728                GetAccess
                0x0000000040102734                lmacDiscardAgedMSDU
                0x0000000040102748                lmacRecycleMPDU
                0x0000000040102d10                lmacProcessTxTimeout
                0x0000000040102d78                lmacProcessAllTxTimeout
                0x0000000040102d8c                lmacProcessCollisions
                0x0000000040102dec                lmacProcessCollision
                0x0000000040102e5c                lmacMSDUAged
                0x00000000401031ec                lmacProcessCtsTimeout
                0x0000000040103224                lmacProcessAckTimeout
                0x000000004010327c                lmacProcessRtsStart
                0x0000000040103288                lmacProcessTxRtsError
                0x0000000040103328                lmacProcessTxError
                0x00000000401033b8                lmacTxFrame
                0x0000000040103554                lmacRxDone
 *fill*         0x000000004010356a        0x2 
 .text          0x000000004010356c      0x8e1 /opt/esp-open-sdk/sdk/lib/libpp.a(pp.o)
                                        0x9fd (size before relaxing)
                0x00000000401035a0                pp_soft_wdt_feed_local
                0x0000000040103634                ppProcessTxQ
                0x00000000401036a8                ppFetchTxQFirstAvail
                0x00000000401036e8                ppDequeueTxQ
                0x0000000040103710                ppRollBackTxQ
                0x0000000040103734                ppRecordBarRRC
                0x0000000040103744                ppTxqUpdateBitmap
                0x000000004010376c                ppEnqueueTxDone
                0x00000000401037a0                ppEnqueueRxq
                0x0000000040103c88                ppDiscardMPDU
                0x0000000040103cac                pp_post
                0x0000000040103d38                pp_post2
                0x0000000040103d60                ppCalTxop
                0x0000000040103de0                ppCalFrameTimes
 *fill*         0x0000000040103e4d        0x3 
 .text          0x0000000040103e50       0xf5 /opt/esp-open-sdk/sdk/lib/libpp.a(rate_control.o)
                                        0x109 (size before relaxing)
                0x0000000040103e70                RC_GetAckRate
                0x0000000040103e7c                RC_GetRtsRate
                0x0000000040103e8c                RC_GetAckTime
                0x0000000040103ea0                RC_GetCtsTime
                0x0000000040103ed8                RC_GetBlockAckTime
 *fill*         0x0000000040103f45        0x3 
 .text          0x0000000040103f48      0x9a1 /opt/esp-open-sdk/sdk/lib/libpp.a(trc.o)
                                        0xa05 (size before relaxing)
                0x000000004010411c                rcUpdateTxDone
                0x00000000401041b0                rcUpdateRxDone
                0x000000004010420c                rcUpdateDataRxDone
                0x0000000040104228                rcGetSched
                0x000000004010430c                rcGetRate
                0x000000004010481c                rcReachRetryLimit
                0x0000000040104834                trc_NeedRTS
 *fill*         0x00000000401048e9        0x3 
 .text          0x00000000401048ec     0x1063 /opt/esp-open-sdk/sdk/lib/libpp.a(wdev.o)
                                       0x1347 (size before relaxing)
                0x0000000040104c98                wDev_MacTim1SetFunc
                0x0000000040104cb8                wDev_MacTim1Arm
                0x0000000040104d4c                wDev_ProcessFiq
                0x0000000040105090                wDev_EnableTransmit
                0x00000000401050c8                wDev_DisableTransmit
                0x00000000401050e8                Tx_Copy2Queue
                0x0000000040105130                wDev_ProcessCollision
                0x0000000040105154                wDev_GetTxqCollisions
                0x0000000040105164                wDev_ClearTxqCollisions
                0x0000000040105180                wDev_SetWaitingQueue
                0x00000000401051c8                wDev_ClearWaitingQueue
                0x00000000401051ec                wDev_SetFrameAckType
                0x000000004010524c                wDev_AppendRxBlocks
                0x0000000040105390                wDev_AppendRxAmpduLensBlocks
                0x0000000040105464                wDev_GetBAInfo
                0x0000000040105498                wDevDisableRx
 *fill*         0x000000004010594f        0x1 
 .text          0x0000000040105950       0x4c /opt/esp-open-sdk/sdk/lib/libpp.a(esf_buf.o)
                                         0x5c (size before relaxing)
                0x0000000040105954                esf_rx_buf_alloc
 .text          0x000000004010599c       0x53 /opt/esp-open-sdk/sdk/lib/libphy.a(phy.o)
                                         0x5f (size before relaxing)
                0x00000000401059a4                register_phy_ops
                0x00000000401059c4                register_get_phy_addr
                0x00000000401059cc                phy_change_channel
                0x00000000401059e4                phy_get_mactime
 *fill*         0x00000000401059ef        0x1 
 .text          0x00000000401059f0      0x262 /opt/esp-open-sdk/sdk/lib/libphy.a(phy_chip_v6_ana.o)
                                        0x276 (size before relaxing)
                0x0000000040105a10                phy_adc_read_fast
 *fill*         0x0000000040105c52        0x2 
 .text          0x0000000040105c54       0x4d /opt/esp-open-sdk/sdk/lib/libphy.a(phy_chip_v6.o)
                                         0x55 (size before relaxing)
                0x0000000040105c64                phy_debug_print
 *fill*         0x0000000040105ca1        0x3 
 .text          0x0000000040105ca4      0x20a /opt/esp-open-sdk/sdk/lib/libphy.a(phy_chip_v6_cal.o)
                                        0x21a (size before relaxing)
                0x0000000040105cb0                tx_pwr_backoff_old
                0x0000000040105e00                unsign_to_sign
                0x0000000040105e38                phy_get_bb_freqoffset
                0x0000000040105ea0                phy_get_bb_evm
 *fill*         0x0000000040105eae        0x2 
 .text          0x0000000040105eb0      0x24b /opt/esp-open-sdk/sdk/lib/libphy.a(phy_sleep.o)
                                        0x287 (size before relaxing)
                0x0000000040105eb0                pm_rtc_clock_cali
                0x0000000040105f80                pm_goto_sleep
                0x00000000401060d0                clockgate_watchdog
 *fill*         0x00000000401060fb        0x1 
 .text          0x00000000401060fc       0x46 /opt/esp-open-sdk/sdk/lib/libnet80211.a(ieee80211_output.o)
                                         0x4e (size before relaxing)
 *fill*         0x0000000040106142        0x2 
 .text          0x0000000040106144        0xb /opt/esp-open-sdk/sdk/lib/libnet80211.a(wl_chm.o)
                0x0000000040106148                chm_get_current_channel
 *fill*         0x000000004010614f        0x1 
 .text          0x0000000040106150       0x43 /opt/esp-open-sdk/sdk/lib/liblwip.a(etharp.o)
                                         0x47 (size before relaxing)
 *fill*         0x0000000040106193        0x1 
 .text          0x0000000040106194      0x1fd /opt/esp-open-sdk/sdk/lib/liblwip.a(tcp.o)
                                        0x229 (size before relaxing)
 *fill*         0x0000000040106391        0x3 
 .text          0x0000000040106394      0x159 /opt/esp-open-sdk/sdk/lib/liblwip.a(tcp_out.o)
                                        0x161 (size before relaxing)
 *fill*         0x00000000401064ed        0x3 
 .text          0x00000000401064f0       0xb4 /opt/esp-open-sdk/sdk/lib/liblwip.a(timers.o)
                                         0xc0 (size before relaxing)
 .text          0x00000000401065a4      0x48f /opt/esp-open-sdk/sdk/lib/liblwip.a(espconn_buf.o)
                                        0x50e (size before relaxing)
                0x00000000401065a8                ringbuf_new
                0x00000000401065f8                ringbuf_buffer_size
                0x00000000401065fc                ringbuf_reset
                0x000000004010660c                ringbuf_free
                0x000000004010664c                ringbuf_capacity
                0x000000004010667c                ringbuf_bytes_free
                0x00000000401066ac                ringbuf_bytes_used
                0x00000000401066d0                ringbuf_is_full
                0x00000000401066e8                ringbuf_is_empty
                0x0000000040106710                ringbuf_tail
                0x0000000040106714                ringbuf_head
                0x0000000040106770                ringbuf_findchr
                0x0000000040106810                ringbuf_memset
                0x00000000401068d8                ringbuf_memcpy_into
                0x0000000040106990                ringbuf_memcpy_from
 *fill*         0x0000000040106a33        0x1 
 .text          0x0000000040106a34      0x15d /opt/esp-open-sdk/sdk/lib/libgcc.a(_mulsf3.o)
                0x0000000040106aac                __mulsf3
 *fill*         0x0000000040106b91        0x3 
 .text          0x0000000040106b94      0x135 /opt/esp-open-sdk/sdk/lib/libgcc.a(_divsf3.o)
                0x0000000040106c10                __divsf3
 *fill*         0x0000000040106cc9        0x3 
 .text          0x0000000040106ccc       0x40 /opt/esp-open-sdk/sdk/lib/libgcc.a(_fixsfsi.o)
                0x0000000040106ccc                __fixsfsi
 .text          0x0000000040106d0c        0x0 /opt/esp-open-sdk/sdk/lib/libmain.a(debug-vector.o)
 .text          0x0000000040106d0c        0x0 /opt/esp-open-sdk/sdk/lib/libmain.a(double-vector.o)
 .text          0x0000000040106d0c        0x0 /opt/esp-open-sdk/sdk/lib/libmain.a(kernel-vector.o)
 .literal       0x0000000040106d0c        0x0 /opt/esp-open-sdk/sdk/lib/libmain.a(nmi-vector.o)
 *fill*         0x0000000040106d0c        0x0 
 .literal       0x0000000040106d0c        0x0 /opt/esp-open-sdk/sdk/lib/libmain.a(user-vector.o)
 .text          0x0000000040106d0c        0x0 /opt/esp-open-sdk/sdk/lib/libmain.a(vector.o)
 *fill*         0x0000000040106d0c        0x0 
 .literal       0x0000000040106d0c        0x0 /opt/esp-open-sdk/sdk/lib/libmain.a(app_main.o)
 *fill*         0x0000000040106d0c        0x0 
 .literal       0x0000000040106d0c        0x0 /opt/esp-open-sdk/sdk/lib/libmain.a(ets_timer.o)
 .literal       0x0000000040106d0c        0x0 /opt/esp-open-sdk/sdk/lib/libmain.a(mem_manager.o)
 *fill*         0x0000000040106d0c        0x0 
 .literal       0x0000000040106d0c        0x0 /opt/esp-open-sdk/sdk/lib/libmain.a(spi_flash.o)
 *fill*         0x0000000040106d0c        0x0 
 .literal       0x0000000040106d0c        0x0 /opt/esp-open-sdk/sdk/lib/libmain.a(user_interface.o)
 *fill*         0x0000000040106d0c        0x0 
 .text          0x0000000040106d0c        0x0 /opt/esp-open-sdk/sdk/lib/libmain.a(eagle_lib.o)
 .text          0x0000000040106d0c        0x0 /opt/esp-open-sdk/sdk/lib/libmain.a(eagle_lwip_if.o)
 *fill*         0x0000000040106d0c        0x0 
 .literal       0x0000000040106d0c        0x0 build/app_app.a(user_main.o)
 .text          0x0000000040106d0c        0x0 build/app_app.a(esp_nano_httpd.o)
 .text          0x0000000040106d0c        0x0 build/app_app.a(nano_httpd_wifi_util.o)
 *fill*         0x0000000040106d0c        0x0 
 *fill*         0x0000000040106d0c        0x0 
 .text          0x0000000040106d0c      0x145 /opt/esp-open-sdk/xtensa-lx106-elf/lib/gcc/xtensa-lx106-elf/4.8.5/../../../../xtensa-lx106-elf/lib/libc.a(lib_a-memcpy.o)
                0x0000000040106d50                memcpy
 *fill*         0x0000000040106e51        0x3 
 .text          0x0000000040106e54       0x7c /opt/esp-open-sdk/xtensa-lx106-elf/lib/gcc/xtensa-lx106-elf/4.8.5/../../../../xtensa-lx106-elf/lib/libc.a(lib_a-memset.o)
                0x0000000040106e80                memset
 .text          0x0000000040106ed0       0x18 /opt/esp-open-sdk/xtensa-lx106-elf/lib/gcc/xtensa-lx106-elf/4.8.5/../../../../xtensa-lx106-elf/lib/libc.a(lib_a-strchr.o)
                0x0000000040106ed0                strchr
 *fill*         0x0000000040106ee8        0x0 
 *fill*         0x0000000040106ee8        0x0 
 .text          0x0000000040106ee8       0x32 /opt/esp-open-sdk/xtensa-lx106-elf/lib/gcc/xtensa-lx106-elf/4.8.5/../../../../xtensa-lx106-elf/lib/libc.a(lib_a-strstr.o)
                0x0000000040106ee8                strstr
 *fill*         0x0000000040106f1a        0x2 
 .literal       0x0000000040106f1c        0x0 /opt/esp-open-sdk/xtensa-lx106-elf/lib/gcc/xtensa-lx106-elf/4.8.5/../../../../xtensa-lx106-elf/lib/libc.a(lib_a-strtok_r.o)
 .text          0x0000000040106f1c       0x71 /opt/esp-open-sdk/xtensa-lx106-elf/lib/gcc/xtensa-lx106-elf/4.8.5/../../../../xtensa-lx106-elf/lib/libc.a(lib_a-strtok_r.o)
                0x0000000040106f1c                __strtok_r
                0x0000000040106f7c                strtok_r
 *fill*         0x0000000040106f8d        0x0 
 .text          0x0000000040106f8d        0x0 /opt/esp-open-sdk/xtensa-lx106-elf/lib/gcc/xtensa-lx106-elf/4.8.5/../../../../xtensa-lx106-elf/lib/libc.a(lib_a-ctype_.o)
 .text          0x0000000040106f8d        0x0 /opt/esp-open-sdk/xtensa-lx106-elf/lib/gcc/xtensa-lx106-elf/4.8.5/../../../../xtensa-lx106-elf/lib/libc.a(lib_a-impure.o)
 *fill*         0x0000000040106f8d        0x3 
 .text          0x0000000040106f90        0x5 /opt/esp-open-sdk/xtensa-lx106-elf/xtensa-lx106-elf/sysroot/usr/lib/libhal.a(int_asm--set_intclear.o)
                0x0000000040106f90                xthal_set_intclear
 .text          0x0000000040106f95        0x0 /opt/esp-open-sdk/sdk/lib/libpp.a(if_hwctrl.o)
 *fill*         0x0000000040106f95        0x3 
 .literal       0x0000000040106f98        0x0 /opt/esp-open-sdk/sdk/lib/libpp.a(lmac.o)
 .text          0x0000000040106f98        0x0 /opt/esp-open-sdk/sdk/lib/libpp.a(pm.o)
 .text          0x0000000040106f98        0x0 /opt/esp-open-sdk/sdk/lib/libpp.a(pm_for_bcn_only_mode.o)
 *fill*         0x0000000040106f98        0x0 
 .literal       0x0000000040106f98        0x0 /opt/esp-open-sdk/sdk/lib/libpp.a(pp.o)
 *fill*         0x0000000040106f98        0x0 
 .literal       0x0000000040106f98        0x0 /opt/esp-open-sdk/sdk/lib/libpp.a(rate_control.o)
 *fill*         0x0000000040106f98        0x0 
 .literal       0x0000000040106f98        0x0 /opt/esp-open-sdk/sdk/lib/libpp.a(trc.o)
 *fill*         0x0000000040106f98        0x0 
 .literal       0x0000000040106f98        0x0 /opt/esp-open-sdk/sdk/lib/libpp.a(wdev.o)
 *fill*         0x0000000040106f98        0x0 
 .literal       0x0000000040106f98        0x0 /opt/esp-open-sdk/sdk/lib/libpp.a(esf_buf.o)
 .literal       0x0000000040106f98        0x0 /opt/esp-open-sdk/sdk/lib/libphy.a(phy.o)
 *fill*         0x0000000040106f98        0x0 
 .literal       0x0000000040106f98        0x0 /opt/esp-open-sdk/sdk/lib/libphy.a(phy_chip_v6_ana.o)
 *fill*         0x0000000040106f98        0x0 
 .literal       0x0000000040106f98        0x0 /opt/esp-open-sdk/sdk/lib/libphy.a(phy_chip_v6.o)
 *fill*         0x0000000040106f98        0x0 
 .literal       0x0000000040106f98        0x0 /opt/esp-open-sdk/sdk/lib/libphy.a(phy_chip_v6_cal.o)
 .text          0x0000000040106f98        0x0 /opt/esp-open-sdk/sdk/lib/libphy.a(phy_chip_v6_unused.o)
 *fill*         0x0000000040106f98        0x0 
 .literal       0x0000000040106f98        0x0 /opt/esp-open-sdk/sdk/lib/libphy.a(phy_sleep.o)
 .text          0x0000000040106f98        0x0 /opt/esp-open-sdk/sdk/lib/libnet80211.a(ieee80211.o)
 .text          0x0000000040106f98        0x0 /opt/esp-open-sdk/sdk/lib/libnet80211.a(ieee80211_crypto.o)
 .text          0x0000000040106f98        0x0 /opt/esp-open-sdk/sdk/lib/libnet80211.a(ieee80211_ets.o)
 *fill*         0x0000000040106f98        0x0 
 .literal       0x0000000040106f98        0x0 /opt/esp-open-sdk/sdk/lib/libnet80211.a(ieee80211_hostap.o)
 .text          0x0000000040106f98       0x25 /opt/esp-open-sdk/sdk/lib/libnet80211.a(ieee80211_hostap.o)
 .text          0x0000000040106fbd        0x0 /opt/esp-open-sdk/sdk/lib/libnet80211.a(ieee80211_ht.o)
 .text          0x0000000040106fbd        0x0 /opt/esp-open-sdk/sdk/lib/libnet80211.a(ieee80211_input.o)
 .text          0x0000000040106fbd        0x0 /opt/esp-open-sdk/sdk/lib/libnet80211.a(ieee80211_mesh_quick.o)
 *fill*         0x0000000040106fbd        0x3 
 .literal       0x0000000040106fc0        0x0 /opt/esp-open-sdk/sdk/lib/libnet80211.a(ieee80211_output.o)
 .text          0x0000000040106fc0        0x0 /opt/esp-open-sdk/sdk/lib/libnet80211.a(ieee80211_phy.o)
 .text          0x0000000040106fc0        0x0 /opt/esp-open-sdk/sdk/lib/libnet80211.a(ieee80211_power.o)
 .text          0x0000000040106fc0        0x0 /opt/esp-open-sdk/sdk/lib/libnet80211.a(ieee80211_proto.o)
 .text          0x0000000040106fc0        0x0 /opt/esp-open-sdk/sdk/lib/libnet80211.a(ieee80211_regdomain.o)
 .text          0x0000000040106fc0        0x0 /opt/esp-open-sdk/sdk/lib/libnet80211.a(ieee80211_rfid.o)
 .text          0x0000000040106fc0        0x0 /opt/esp-open-sdk/sdk/lib/libnet80211.a(ieee80211_scan.o)
 .text          0x0000000040106fc0        0x0 /opt/esp-open-sdk/sdk/lib/libnet80211.a(ieee80211_sta.o)
 *fill*         0x0000000040106fc0        0x0 
 .literal       0x0000000040106fc0        0x0 /opt/esp-open-sdk/sdk/lib/libnet80211.a(wl_chm.o)
 .text          0x0000000040106fc0        0x0 /opt/esp-open-sdk/sdk/lib/libnet80211.a(wl_cnx.o)
 .text          0x0000000040106fc0        0x0 /opt/esp-open-sdk/sdk/lib/libnet80211.a(ieee80211_action.o)
 .text          0x0000000040106fc0        0x0 /opt/esp-open-sdk/sdk/lib/libnet80211.a(ieee80211_action_vendor.o)
 .text          0x0000000040106fc0        0x0 /opt/esp-open-sdk/sdk/lib/libnet80211.a(ieee80211_crypto_ccmp.o)
 .text          0x0000000040106fc0        0x0 /opt/esp-open-sdk/sdk/lib/libnet80211.a(ieee80211_ie_vendor.o)
 .text          0x0000000040106fc0        0x0 /opt/esp-open-sdk/sdk/lib/liblwip.a(dhcp.o)
 .text          0x0000000040106fc0        0x0 /opt/esp-open-sdk/sdk/lib/liblwip.a(dhcpserver.o)
 .text          0x0000000040106fc0        0x0 /opt/esp-open-sdk/sdk/lib/liblwip.a(dns.o)
 .text          0x0000000040106fc0        0x0 /opt/esp-open-sdk/sdk/lib/liblwip.a(espconn.o)
 .text          0x0000000040106fc0        0x0 /opt/esp-open-sdk/sdk/lib/liblwip.a(espconn_tcp.o)
 .text          0x0000000040106fc0        0x0 /opt/esp-open-sdk/sdk/lib/liblwip.a(espconn_udp.o)
 *fill*         0x0000000040106fc0        0x0 
 .literal       0x0000000040106fc0        0x0 /opt/esp-open-sdk/sdk/lib/liblwip.a(etharp.o)
 .text          0x0000000040106fc0        0x0 /opt/esp-open-sdk/sdk/lib/liblwip.a(igmp.o)
 .text          0x0000000040106fc0        0x0 /opt/esp-open-sdk/sdk/lib/liblwip.a(inet_chksum.o)
 .text          0x0000000040106fc0        0x0 /opt/esp-open-sdk/sdk/lib/liblwip.a(init.o)
 .text          0x0000000040106fc0        0x0 /opt/esp-open-sdk/sdk/lib/liblwip.a(ip_addr.o)
 .text          0x0000000040106fc0        0x0 /opt/esp-open-sdk/sdk/lib/liblwip.a(ip.o)
 .text          0x0000000040106fc0        0x0 /opt/esp-open-sdk/sdk/lib/liblwip.a(memp.o)
 .text          0x0000000040106fc0        0x0 /opt/esp-open-sdk/sdk/lib/liblwip.a(netif.o)
 .text          0x0000000040106fc0        0x0 /opt/esp-open-sdk/sdk/lib/liblwip.a(pbuf.o)
 .text          0x0000000040106fc0        0x0 /opt/esp-open-sdk/sdk/lib/liblwip.a(raw.o)
 .text          0x0000000040106fc0        0x0 /opt/esp-open-sdk/sdk/lib/liblwip.a(tcp_in.o)
 *fill*         0x0000000040106fc0        0x0 
 .literal       0x0000000040106fc0        0x0 /opt/esp-open-sdk/sdk/lib/liblwip.a(tcp.o)
 *fill*         0x0000000040106fc0        0x0 
 .literal       0x0000000040106fc0        0x0 /opt/esp-open-sdk/sdk/lib/liblwip.a(tcp_out.o)
 *fill*         0x0000000040106fc0        0x0 
 .literal       0x0000000040106fc0        0x0 /opt/esp-open-sdk/sdk/lib/liblwip.a(timers.o)
 .text          0x0000000040106fc0        0x0 /opt/esp-open-sdk/sdk/lib/liblwip.a(udp.o)
 .literal       0x0000000040106fc0        0x0 /opt/esp-open-sdk/sdk/lib/liblwip.a(espconn_buf.o)
 .text          0x0000000040106fc0        0x0 /opt/esp-open-sdk/sdk/lib/liblwip.a(icmp.o)
 .text          0x0000000040106fc0        0x0 /opt/esp-open-sdk/sdk/lib/libwpa.a(ap_config.o)
 .text          0x0000000040106fc0        0x0 /opt/esp-open-sdk/sdk/lib/libwpa.a(common.o)
 .text          0x0000000040106fc0        0x0 /opt/esp-open-sdk/sdk/lib/libwpa.a(os_xtensa.o)
 *fill*         0x0000000040106fc0        0x0 
 .literal       0x0000000040106fc0        0x0 /opt/esp-open-sdk/sdk/lib/libwpa.a(wpa_auth.o)
 .text          0x0000000040106fc0       0x11 /opt/esp-open-sdk/sdk/lib/libwpa.a(wpa_auth.o)
 .text          0x0000000040106fd1        0x0 /opt/esp-open-sdk/sdk/lib/libwpa.a(wpa_auth_ie.o)
 .text          0x0000000040106fd1        0x0 /opt/esp-open-sdk/sdk/lib/libwpa.a(wpa.o)
 .text          0x0000000040106fd1        0x0 /opt/esp-open-sdk/sdk/lib/libwpa.a(wpa_common.o)
 .text          0x0000000040106fd1        0x0 /opt/esp-open-sdk/sdk/lib/libwpa.a(wpa_debug.o)
 .text          0x0000000040106fd1        0x0 /opt/esp-open-sdk/sdk/lib/libwpa.a(wpa_ie.o)
 .text          0x0000000040106fd1        0x0 /opt/esp-open-sdk/sdk/lib/libwpa.a(wpa_main.o)
 .text          0x0000000040106fd1        0x0 /opt/esp-open-sdk/sdk/lib/libwpa.a(wpas_glue.o)
 .text          0x0000000040106fd1        0x0 /opt/esp-open-sdk/sdk/lib/libwpa.a(aes-wrap.o)
 .text          0x0000000040106fd1        0x0 /opt/esp-open-sdk/sdk/lib/libwpa.a(aes-internal-enc.o)
 .text          0x0000000040106fd1        0x0 /opt/esp-open-sdk/sdk/lib/libwpa.a(aes-internal.o)
 .text          0x0000000040106fd1        0x0 /opt/esp-open-sdk/sdk/lib/libjson.a(jsontree.o)
 *fill*         0x0000000040106fd1        0x3 
 .text          0x0000000040106fd4       0x17 /opt/esp-open-sdk/xtensa-lx106-elf/lib/gcc/xtensa-lx106-elf/4.8.5/../../../../xtensa-lx106-elf/lib/libc.a(lib_a-memchr.o)
                0x0000000040106fd4                memchr
 *fill*         0x0000000040106feb        0x1 
 .text          0x0000000040106fec       0x49 /opt/esp-open-sdk/sdk/lib/libgcc.a(_modsi3.o)
                0x0000000040106fec                __modsi3
 *fill*         0x0000000040107035        0x3 
 .text          0x0000000040107038       0x18 /opt/esp-open-sdk/sdk/lib/libgcc.a(_ashrdi3.o)
                0x0000000040107038                __ashrdi3
 *fill*         0x0000000040107050        0x0 
 *fill*         0x0000000040107050        0x0 
 .text          0x0000000040107050        0x0 /opt/esp-open-sdk/sdk/lib/libnet80211.a(ieee80211_crypto_tkip.o)
 .text          0x0000000040107050        0x0 /opt/esp-open-sdk/sdk/lib/libnet80211.a(ieee80211_crypto_wep.o)
 *(.fini.literal)
 *(.fini)
 *(.gnu.version)
                0x0000000040107050                _text_end = ABSOLUTE (.)
                0x0000000040107050                _etext = .

.NMIExceptionVector.literal
                0x0000000040107050        0x0
 .NMIExceptionVector.literal
                0x0000000040107050        0x0 /opt/esp-open-sdk/sdk/lib/libmain.a(nmi-vector.o)

.UserExceptionVector.literal
                0x0000000040107050        0x0
 .UserExceptionVector.literal
                0x0000000040107050        0x0 /opt/esp-open-sdk/sdk/lib/libmain.a(user-vector.o)

.UserEnter.literal
                0x0000000040107050        0x0
 .UserEnter.literal
                0x0000000040107050        0x0 /opt/esp-open-sdk/sdk/lib/libmain.a(vector.o)

.lit4           0x0000000040107050        0x0
                0x0000000040107050                _lit4_start = ABSOLUTE (.)
 *(*.lit4)
 *(.lit4.*)
 *(.gnu.linkonce.lit4.*)
                0x0000000040107050                _lit4_end = ABSOLUTE (.)
                0x00000000400047f0                PROVIDE (Cache_Read_Disable, 0x400047f0)
                0x0000000040004678                PROVIDE (Cache_Read_Enable, 0x40004678)
                [!provide]                        PROVIDE (FilePacketSendReqMsgProc, 0x400035a0)
                [!provide]                        PROVIDE (FlashDwnLdParamCfgMsgProc, 0x4000368c)
                [!provide]                        PROVIDE (FlashDwnLdStartMsgProc, 0x40003538)
                [!provide]                        PROVIDE (FlashDwnLdStopReqMsgProc, 0x40003658)
                [!provide]                        PROVIDE (GetUartDevice, 0x40003f4c)
                [!provide]                        PROVIDE (MD5Final, 0x40009900)
                [!provide]                        PROVIDE (MD5Init, 0x40009818)
                [!provide]                        PROVIDE (MD5Update, 0x40009834)
                [!provide]                        PROVIDE (MemDwnLdStartMsgProc, 0x400036c4)
                [!provide]                        PROVIDE (MemDwnLdStopReqMsgProc, 0x4000377c)
                [!provide]                        PROVIDE (MemPacketSendReqMsgProc, 0x400036f0)
                [!provide]                        PROVIDE (RcvMsg, 0x40003eac)
                [!provide]                        PROVIDE (SHA1Final, 0x4000b648)
                [!provide]                        PROVIDE (SHA1Init, 0x4000b584)
                [!provide]                        PROVIDE (SHA1Transform, 0x4000a364)
                [!provide]                        PROVIDE (SHA1Update, 0x4000b5a8)
                0x00000000400043c8                PROVIDE (SPI_read_status, 0x400043c8)
                0x0000000040004400                PROVIDE (SPI_write_status, 0x40004400)
                0x000000004000443c                PROVIDE (SPI_write_enable, 0x4000443c)
                0x000000004000448c                PROVIDE (Wait_SPI_Idle, 0x4000448c)
                0x00000000400044c0                PROVIDE (Enable_QMode, 0x400044c0)
                [!provide]                        PROVIDE (SPIEraseArea, 0x40004b44)
                [!provide]                        PROVIDE (SPIEraseBlock, 0x400049b4)
                [!provide]                        PROVIDE (SPIEraseChip, 0x40004984)
                0x0000000040004a00                PROVIDE (SPIEraseSector, 0x40004a00)
                [!provide]                        PROVIDE (SPILock, 0x400048a8)
                [!provide]                        PROVIDE (SPIParamCfg, 0x40004c2c)
                0x0000000040004b1c                PROVIDE (SPIRead, 0x40004b1c)
                [!provide]                        PROVIDE (SPIReadModeCnfig, 0x400048ec)
                [!provide]                        PROVIDE (SPIUnlock, 0x40004878)
                0x0000000040004a4c                PROVIDE (SPIWrite, 0x40004a4c)
                [!provide]                        PROVIDE (SelectSpiFunction, 0x40003f58)
                [!provide]                        PROVIDE (SendMsg, 0x40003cf4)
                [!provide]                        PROVIDE (UartConnCheck, 0x40003230)
                [!provide]                        PROVIDE (UartConnectProc, 0x400037a0)
                [!provide]                        PROVIDE (UartDwnLdProc, 0x40003368)
                [!provide]                        PROVIDE (UartGetCmdLn, 0x40003ef4)
                [!provide]                        PROVIDE (UartRegReadProc, 0x4000381c)
                [!provide]                        PROVIDE (UartRegWriteProc, 0x400037ac)
                [!provide]                        PROVIDE (UartRxString, 0x40003c30)
                0x0000000040003a14                PROVIDE (Uart_Init, 0x40003a14)
                [!provide]                        PROVIDE (_DebugExceptionVector, 0x40000010)
                [!provide]                        PROVIDE (_DoubleExceptionVector, 0x40000070)
                [!provide]                        PROVIDE (_KernelExceptionVector, 0x40000030)
                [!provide]                        PROVIDE (_NMIExceptionVector, 0x40000020)
                [!provide]                        PROVIDE (_ResetHandler, 0x400000a4)
                [!provide]                        PROVIDE (_ResetVector, 0x40000080)
                [!provide]                        PROVIDE (_UserExceptionVector, 0x40000050)
                [!provide]                        PROVIDE (__adddf3, 0x4000c538)
                0x000000004000c180                PROVIDE (__addsf3, 0x4000c180)
                0x000000004000cb94                PROVIDE (__divdf3, 0x4000cb94)
                0x000000004000ce60                PROVIDE (__divdi3, 0x4000ce60)
                0x000000004000dc88                PROVIDE (__divsi3, 0x4000dc88)
                [!provide]                        PROVIDE (__extendsfdf2, 0x4000cdfc)
                0x000000004000ccb8                PROVIDE (__fixdfsi, 0x4000ccb8)
                [!provide]                        PROVIDE (__fixunsdfsi, 0x4000cd00)
                0x000000004000c4c4                PROVIDE (__fixunssfsi, 0x4000c4c4)
                0x000000004000e2f0                PROVIDE (__floatsidf, 0x4000e2f0)
                0x000000004000e2ac                PROVIDE (__floatsisf, 0x4000e2ac)
                0x000000004000e2e8                PROVIDE (__floatunsidf, 0x4000e2e8)
                0x000000004000e2a4                PROVIDE (__floatunsisf, 0x4000e2a4)
                0x000000004000c8f0                PROVIDE (__muldf3, 0x4000c8f0)
                0x0000000040000650                PROVIDE (__muldi3, 0x40000650)
                [!provide]                        PROVIDE (__mulsf3, 0x4000c3dc)
                [!provide]                        PROVIDE (__subdf3, 0x4000c688)
                0x000000004000c268                PROVIDE (__subsf3, 0x4000c268)
                0x000000004000cd5c                PROVIDE (__truncdfsf2, 0x4000cd5c)
                [!provide]                        PROVIDE (__udivdi3, 0x4000d310)
                0x000000004000e21c                PROVIDE (__udivsi3, 0x4000e21c)
                0x000000004000d770                PROVIDE (__umoddi3, 0x4000d770)
                0x000000004000e268                PROVIDE (__umodsi3, 0x4000e268)
                [!provide]                        PROVIDE (__umulsidi3, 0x4000dcf0)
                [!provide]                        PROVIDE (_rom_store, 0x4000e388)
                [!provide]                        PROVIDE (_rom_store_table, 0x4000e328)
                [!provide]                        PROVIDE (_start, 0x4000042c)
                [!provide]                        PROVIDE (_xtos_alloca_handler, 0x4000dbe0)
                [!provide]                        PROVIDE (_xtos_c_wrapper_handler, 0x40000598)
                [!provide]                        PROVIDE (_xtos_cause3_handler, 0x40000590)
                [!provide]                        PROVIDE (_xtos_ints_off, 0x4000bda4)
                [!provide]                        PROVIDE (_xtos_ints_on, 0x4000bd84)
                [!provide]                        PROVIDE (_xtos_l1int_handler, 0x4000048c)
                [!provide]                        PROVIDE (_xtos_p_none, 0x4000dbf8)
                [!provide]                        PROVIDE (_xtos_restore_intlevel, 0x4000056c)
                [!provide]                        PROVIDE (_xtos_return_from_exc, 0x4000dc54)
                0x0000000040000454                PROVIDE (_xtos_set_exception_handler, 0x40000454)
                [!provide]                        PROVIDE (_xtos_set_interrupt_handler, 0x4000bd70)
                [!provide]                        PROVIDE (_xtos_set_interrupt_handler_arg, 0x4000bd28)
                [!provide]                        PROVIDE (_xtos_set_intlevel, 0x4000dbfc)
                [!provide]                        PROVIDE (_xtos_set_min_intlevel, 0x4000dc18)
                [!provide]                        PROVIDE (_xtos_set_vpri, 0x40000574)
                [!provide]                        PROVIDE (_xtos_syscall_handler, 0x4000dbe4)
                [!provide]                        PROVIDE (_xtos_unhandled_exception, 0x4000dc44)
                [!provide]                        PROVIDE (_xtos_unhandled_interrupt, 0x4000dc3c)
                [!provide]                        PROVIDE (aes_decrypt, 0x400092d4)
                [!provide]                        PROVIDE (aes_decrypt_deinit, 0x400092e4)
                [!provide]                        PROVIDE (aes_decrypt_init, 0x40008ea4)
                0x0000000040009410                PROVIDE (aes_unwrap, 0x40009410)
                [!provide]                        PROVIDE (base64_decode, 0x40009648)
                [!provide]                        PROVIDE (base64_encode, 0x400094fc)
                [!provide]                        PROVIDE (bzero, 0x4000de84)
                [!provide]                        PROVIDE (cmd_parse, 0x40000814)
                [!provide]                        PROVIDE (conv_str_decimal, 0x40000b24)
                [!provide]                        PROVIDE (conv_str_hex, 0x40000cb8)
                [!provide]                        PROVIDE (convert_para_str, 0x40000a60)
                [!provide]                        PROVIDE (dtm_get_intr_mask, 0x400026d0)
                [!provide]                        PROVIDE (dtm_params_init, 0x4000269c)
                [!provide]                        PROVIDE (dtm_set_intr_mask, 0x400026c8)
                [!provide]                        PROVIDE (dtm_set_params, 0x400026dc)
                [!provide]                        PROVIDE (eprintf, 0x40001d14)
                [!provide]                        PROVIDE (eprintf_init_buf, 0x40001cb8)
                [!provide]                        PROVIDE (eprintf_to_host, 0x40001d48)
                [!provide]                        PROVIDE (est_get_printf_buf_remain_len, 0x40002494)
                [!provide]                        PROVIDE (est_reset_printf_buf_len, 0x4000249c)
                0x0000000040002ae8                PROVIDE (ets_bzero, 0x40002ae8)
                [!provide]                        PROVIDE (ets_char2xdigit, 0x40002b74)
                0x0000000040002ecc                PROVIDE (ets_delay_us, 0x40002ecc)
                [!provide]                        PROVIDE (ets_enter_sleep, 0x400027b8)
                [!provide]                        PROVIDE (ets_external_printf, 0x40002578)
                0x0000000040002f0c                PROVIDE (ets_get_cpu_frequency, 0x40002f0c)
                [!provide]                        PROVIDE (ets_getc, 0x40002bcc)
                [!provide]                        PROVIDE (ets_install_external_printf, 0x40002450)
                0x000000004000242c                PROVIDE (ets_install_putc1, 0x4000242c)
                [!provide]                        PROVIDE (ets_install_putc2, 0x4000248c)
                [!provide]                        PROVIDE (ets_install_uart_printf, 0x40002438)
                0x0000000040000f74                PROVIDE (ets_intr_lock, 0x40000f74)
                0x0000000040000f80                PROVIDE (ets_intr_unlock, 0x40000f80)
                0x0000000040000f88                PROVIDE (ets_isr_attach, 0x40000f88)
                0x0000000040000f98                PROVIDE (ets_isr_mask, 0x40000f98)
                0x0000000040000fa8                PROVIDE (ets_isr_unmask, 0x40000fa8)
                0x00000000400018d4                PROVIDE (ets_memcmp, 0x400018d4)
                0x00000000400018b4                PROVIDE (ets_memcpy, 0x400018b4)
                [!provide]                        PROVIDE (ets_memmove, 0x400018c4)
                0x00000000400018a4                PROVIDE (ets_memset, 0x400018a4)
                0x0000000040000e24                PROVIDE (ets_post, 0x40000e24)
                0x00000000400024cc                PROVIDE (ets_printf, 0x400024cc)
                [!provide]                        PROVIDE (ets_putc, 0x40002be8)
                [!provide]                        PROVIDE (ets_rtc_int_register, 0x40002a40)
                0x0000000040000e04                PROVIDE (ets_run, 0x40000e04)
                0x0000000040000dc0                PROVIDE (ets_set_idle_cb, 0x40000dc0)
                [!provide]                        PROVIDE (ets_set_user_start, 0x40000fbc)
                [!provide]                        PROVIDE (ets_str2macaddr, 0x40002af8)
                0x0000000040002aa8                PROVIDE (ets_strcmp, 0x40002aa8)
                0x0000000040002a88                PROVIDE (ets_strcpy, 0x40002a88)
                0x0000000040002ac8                PROVIDE (ets_strlen, 0x40002ac8)
                0x0000000040002ab8                PROVIDE (ets_strncmp, 0x40002ab8)
                0x0000000040002a98                PROVIDE (ets_strncpy, 0x40002a98)
                [!provide]                        PROVIDE (ets_strstr, 0x40002ad8)
                0x0000000040000dd0                PROVIDE (ets_task, 0x40000dd0)
                [!provide]                        PROVIDE (ets_timer_arm, 0x40002cc4)
                [!provide]                        PROVIDE (ets_timer_disarm, 0x40002d40)
                [!provide]                        PROVIDE (ets_timer_done, 0x40002d80)
                [!provide]                        PROVIDE (ets_timer_handler_isr, 0x40002da8)
                [!provide]                        PROVIDE (ets_timer_init, 0x40002e68)
                [!provide]                        PROVIDE (ets_timer_setfn, 0x40002c48)
                [!provide]                        PROVIDE (ets_uart_printf, 0x40002544)
                0x0000000040002f04                PROVIDE (ets_update_cpu_frequency, 0x40002f04)
                0x0000000040001f00                PROVIDE (ets_vprintf, 0x40001f00)
                [!provide]                        PROVIDE (ets_wdt_disable, 0x400030f0)
                [!provide]                        PROVIDE (ets_wdt_enable, 0x40002fa0)
                [!provide]                        PROVIDE (ets_wdt_get_mode, 0x40002f34)
                [!provide]                        PROVIDE (ets_wdt_init, 0x40003170)
                [!provide]                        PROVIDE (ets_wdt_restore, 0x40003158)
                0x0000000040001da0                PROVIDE (ets_write_char, 0x40001da0)
                [!provide]                        PROVIDE (get_first_seg, 0x4000091c)
                0x0000000040004c50                PROVIDE (gpio_init, 0x40004c50)
                0x0000000040004cf0                PROVIDE (gpio_input_get, 0x40004cf0)
                [!provide]                        PROVIDE (gpio_intr_ack, 0x40004dcc)
                [!provide]                        PROVIDE (gpio_intr_handler_register, 0x40004e28)
                [!provide]                        PROVIDE (gpio_intr_pending, 0x40004d88)
                [!provide]                        PROVIDE (gpio_intr_test, 0x40004efc)
                0x0000000040004cd0                PROVIDE (gpio_output_set, 0x40004cd0)
                [!provide]                        PROVIDE (gpio_pin_intr_state_set, 0x40004d90)
                0x0000000040004ed4                PROVIDE (gpio_pin_wakeup_disable, 0x40004ed4)
                0x0000000040004e90                PROVIDE (gpio_pin_wakeup_enable, 0x40004e90)
                [!provide]                        PROVIDE (gpio_register_get, 0x40004d5c)
                [!provide]                        PROVIDE (gpio_register_set, 0x40004d04)
                0x000000004000a2cc                PROVIDE (hmac_md5, 0x4000a2cc)
                [!provide]                        PROVIDE (hmac_md5_vector, 0x4000a160)
                0x000000004000ba28                PROVIDE (hmac_sha1, 0x4000ba28)
                0x000000004000b8b4                PROVIDE (hmac_sha1_vector, 0x4000b8b4)
                0x0000000040004f40                PROVIDE (lldesc_build_chain, 0x40004f40)
                0x0000000040005050                PROVIDE (lldesc_num2link, 0x40005050)
                [!provide]                        PROVIDE (lldesc_set_owner, 0x4000507c)
                [!provide]                        PROVIDE (main, 0x40000fec)
                [!provide]                        PROVIDE (md5_vector, 0x400097ac)
                [!provide]                        PROVIDE (mem_calloc, 0x40001c2c)
                [!provide]                        PROVIDE (mem_free, 0x400019e0)
                [!provide]                        PROVIDE (mem_init, 0x40001998)
                [!provide]                        PROVIDE (mem_malloc, 0x40001b40)
                [!provide]                        PROVIDE (mem_realloc, 0x40001c6c)
                [!provide]                        PROVIDE (mem_trim, 0x40001a14)
                [!provide]                        PROVIDE (mem_zalloc, 0x40001c58)
                [!provide]                        PROVIDE (memcmp, 0x4000dea8)
                [!provide]                        PROVIDE (memcpy, 0x4000df48)
                [!provide]                        PROVIDE (memmove, 0x4000e04c)
                [!provide]                        PROVIDE (memset, 0x4000e190)
                [!provide]                        PROVIDE (multofup, 0x400031c0)
                0x000000004000b840                PROVIDE (pbkdf2_sha1, 0x4000b840)
                0x0000000040006b08                PROVIDE (phy_get_romfuncs, 0x40006b08)
                [!provide]                        PROVIDE (rand, 0x40000600)
                0x000000004000dd68                PROVIDE (rc4_skip, 0x4000dd68)
                [!provide]                        PROVIDE (recv_packet, 0x40003d08)
                [!provide]                        PROVIDE (remove_head_space, 0x40000a04)
                [!provide]                        PROVIDE (rijndaelKeySetupDec, 0x40008dd0)
                [!provide]                        PROVIDE (rijndaelKeySetupEnc, 0x40009300)
                [!provide]                        PROVIDE (rom_abs_temp, 0x400060c0)
                [!provide]                        PROVIDE (rom_ana_inf_gating_en, 0x40006b10)
                [!provide]                        PROVIDE (rom_cal_tos_v50, 0x40007a28)
                [!provide]                        PROVIDE (rom_chip_50_set_channel, 0x40006f84)
                0x00000000400060d0                PROVIDE (rom_chip_v5_disable_cca, 0x400060d0)
                0x00000000400060ec                PROVIDE (rom_chip_v5_enable_cca, 0x400060ec)
                [!provide]                        PROVIDE (rom_chip_v5_rx_init, 0x4000711c)
                [!provide]                        PROVIDE (rom_chip_v5_sense_backoff, 0x4000610c)
                [!provide]                        PROVIDE (rom_chip_v5_tx_init, 0x4000718c)
                [!provide]                        PROVIDE (rom_dc_iq_est, 0x4000615c)
                [!provide]                        PROVIDE (rom_en_pwdet, 0x400061b8)
                [!provide]                        PROVIDE (rom_get_bb_atten, 0x40006238)
                [!provide]                        PROVIDE (rom_get_corr_power, 0x40006260)
                [!provide]                        PROVIDE (rom_get_fm_sar_dout, 0x400062dc)
                [!provide]                        PROVIDE (rom_get_noisefloor, 0x40006394)
                [!provide]                        PROVIDE (rom_get_power_db, 0x400063b0)
                [!provide]                        PROVIDE (rom_i2c_readReg, 0x40007268)
                [!provide]                        PROVIDE (rom_i2c_readReg_Mask, 0x4000729c)
                [!provide]                        PROVIDE (rom_i2c_writeReg, 0x400072d8)
                [!provide]                        PROVIDE (rom_i2c_writeReg_Mask, 0x4000730c)
                [!provide]                        PROVIDE (rom_iq_est_disable, 0x40006400)
                [!provide]                        PROVIDE (rom_iq_est_enable, 0x40006430)
                [!provide]                        PROVIDE (rom_linear_to_db, 0x40006484)
                [!provide]                        PROVIDE (rom_mhz2ieee, 0x400065a4)
                [!provide]                        PROVIDE (rom_pbus_dco___SA2, 0x40007bf0)
                [!provide]                        PROVIDE (rom_pbus_debugmode, 0x4000737c)
                [!provide]                        PROVIDE (rom_pbus_enter_debugmode, 0x40007410)
                [!provide]                        PROVIDE (rom_pbus_exit_debugmode, 0x40007448)
                [!provide]                        PROVIDE (rom_pbus_force_test, 0x4000747c)
                [!provide]                        PROVIDE (rom_pbus_rd, 0x400074d8)
                [!provide]                        PROVIDE (rom_pbus_set_rxgain, 0x4000754c)
                [!provide]                        PROVIDE (rom_pbus_set_txgain, 0x40007610)
                [!provide]                        PROVIDE (rom_pbus_workmode, 0x40007648)
                [!provide]                        PROVIDE (rom_pbus_xpd_rx_off, 0x40007688)
                [!provide]                        PROVIDE (rom_pbus_xpd_rx_on, 0x400076cc)
                [!provide]                        PROVIDE (rom_pbus_xpd_tx_off, 0x400076fc)
                [!provide]                        PROVIDE (rom_pbus_xpd_tx_on, 0x40007740)
                [!provide]                        PROVIDE (rom_pbus_xpd_tx_on__low_gain, 0x400077a0)
                [!provide]                        PROVIDE (rom_phy_reset_req, 0x40007804)
                [!provide]                        PROVIDE (rom_restart_cal, 0x4000781c)
                [!provide]                        PROVIDE (rom_rfcal_pwrctrl, 0x40007eb4)
                [!provide]                        PROVIDE (rom_rfcal_rxiq, 0x4000804c)
                [!provide]                        PROVIDE (rom_rfcal_rxiq_set_reg, 0x40008264)
                [!provide]                        PROVIDE (rom_rfcal_txcap, 0x40008388)
                [!provide]                        PROVIDE (rom_rfcal_txiq, 0x40008610)
                [!provide]                        PROVIDE (rom_rfcal_txiq_cover, 0x400088b8)
                [!provide]                        PROVIDE (rom_rfcal_txiq_set_reg, 0x40008a70)
                [!provide]                        PROVIDE (rom_rfpll_reset, 0x40007868)
                [!provide]                        PROVIDE (rom_rfpll_set_freq, 0x40007968)
                [!provide]                        PROVIDE (rom_rxiq_cover_mg_mp, 0x40008b6c)
                [!provide]                        PROVIDE (rom_rxiq_get_mis, 0x40006628)
                [!provide]                        PROVIDE (rom_sar_init, 0x40006738)
                [!provide]                        PROVIDE (rom_set_ana_inf_tx_scale, 0x4000678c)
                [!provide]                        PROVIDE (rom_set_channel_freq, 0x40006c50)
                [!provide]                        PROVIDE (rom_set_loopback_gain, 0x400067c8)
                [!provide]                        PROVIDE (rom_set_noise_floor, 0x40006830)
                [!provide]                        PROVIDE (rom_set_rxclk_en, 0x40006550)
                [!provide]                        PROVIDE (rom_set_txbb_atten, 0x40008c6c)
                [!provide]                        PROVIDE (rom_set_txclk_en, 0x4000650c)
                [!provide]                        PROVIDE (rom_set_txiq_cal, 0x40008d34)
                [!provide]                        PROVIDE (rom_start_noisefloor, 0x40006874)
                [!provide]                        PROVIDE (rom_start_tx_tone, 0x400068b4)
                [!provide]                        PROVIDE (rom_stop_tx_tone, 0x4000698c)
                [!provide]                        PROVIDE (rom_tx_mac_disable, 0x40006a98)
                [!provide]                        PROVIDE (rom_tx_mac_enable, 0x40006ad4)
                [!provide]                        PROVIDE (rom_txtone_linear_pwr, 0x40006a1c)
                [!provide]                        PROVIDE (rom_write_rfpll_sdm, 0x400078dc)
                0x00000000400031b4                PROVIDE (roundup2, 0x400031b4)
                [!provide]                        PROVIDE (rtc_enter_sleep, 0x40002870)
                0x00000000400025e0                PROVIDE (rtc_get_reset_reason, 0x400025e0)
                [!provide]                        PROVIDE (rtc_intr_handler, 0x400029ec)
                [!provide]                        PROVIDE (rtc_set_sleep_mode, 0x40002668)
                [!provide]                        PROVIDE (save_rxbcn_mactime, 0x400027a4)
                [!provide]                        PROVIDE (save_tsf_us, 0x400027ac)
                [!provide]                        PROVIDE (send_packet, 0x40003c80)
                0x000000004000ba48                PROVIDE (sha1_prf, 0x4000ba48)
                [!provide]                        PROVIDE (sha1_vector, 0x4000a2ec)
                [!provide]                        PROVIDE (sip_alloc_to_host_evt, 0x40005180)
                [!provide]                        PROVIDE (sip_get_ptr, 0x400058a8)
                [!provide]                        PROVIDE (sip_get_state, 0x40005668)
                [!provide]                        PROVIDE (sip_init_attach, 0x4000567c)
                [!provide]                        PROVIDE (sip_install_rx_ctrl_cb, 0x4000544c)
                [!provide]                        PROVIDE (sip_install_rx_data_cb, 0x4000545c)
                [!provide]                        PROVIDE (sip_post, 0x400050fc)
                [!provide]                        PROVIDE (sip_post_init, 0x400056c4)
                [!provide]                        PROVIDE (sip_reclaim_from_host_cmd, 0x4000534c)
                [!provide]                        PROVIDE (sip_reclaim_tx_data_pkt, 0x400052c0)
                [!provide]                        PROVIDE (sip_send, 0x40005808)
                [!provide]                        PROVIDE (sip_to_host_chain_append, 0x40005864)
                [!provide]                        PROVIDE (sip_to_host_evt_send_done, 0x40005234)
                [!provide]                        PROVIDE (slc_add_credits, 0x400060ac)
                [!provide]                        PROVIDE (slc_enable, 0x40005d90)
                [!provide]                        PROVIDE (slc_from_host_chain_fetch, 0x40005f24)
                [!provide]                        PROVIDE (slc_from_host_chain_recycle, 0x40005e94)
                [!provide]                        PROVIDE (slc_init_attach, 0x40005c50)
                [!provide]                        PROVIDE (slc_init_credit, 0x4000608c)
                [!provide]                        PROVIDE (slc_pause_from_host, 0x40006014)
                [!provide]                        PROVIDE (slc_reattach, 0x40005c1c)
                [!provide]                        PROVIDE (slc_resume_from_host, 0x4000603c)
                [!provide]                        PROVIDE (slc_select_tohost_gpio, 0x40005dc0)
                [!provide]                        PROVIDE (slc_select_tohost_gpio_mode, 0x40005db8)
                [!provide]                        PROVIDE (slc_send_to_host_chain, 0x40005de4)
                [!provide]                        PROVIDE (slc_set_host_io_max_window, 0x40006068)
                [!provide]                        PROVIDE (slc_to_host_chain_recycle, 0x40005f10)
                [!provide]                        PROVIDE (software_reset, 0x4000264c)
                [!provide]                        PROVIDE (spi_flash_attach, 0x40004644)
                [!provide]                        PROVIDE (srand, 0x400005f0)
                [!provide]                        PROVIDE (strcmp, 0x4000bdc8)
                [!provide]                        PROVIDE (strcpy, 0x4000bec8)
                [!provide]                        PROVIDE (strlen, 0x4000bf4c)
                [!provide]                        PROVIDE (strncmp, 0x4000bfa8)
                [!provide]                        PROVIDE (strncpy, 0x4000c0a0)
                [!provide]                        PROVIDE (strstr, 0x4000e1e0)
                [!provide]                        PROVIDE (timer_insert, 0x40002c64)
                [!provide]                        PROVIDE (uartAttach, 0x4000383c)
                [!provide]                        PROVIDE (uart_baudrate_detect, 0x40003924)
                0x00000000400038a4                PROVIDE (uart_buff_switch, 0x400038a4)
                0x00000000400039d8                PROVIDE (uart_div_modify, 0x400039d8)
                [!provide]                        PROVIDE (uart_rx_intr_handler, 0x40003bbc)
                [!provide]                        PROVIDE (uart_rx_one_char, 0x40003b8c)
                [!provide]                        PROVIDE (uart_rx_one_char_block, 0x40003b64)
                [!provide]                        PROVIDE (uart_rx_readbuff, 0x40003ec8)
                [!provide]                        PROVIDE (uart_tx_one_char, 0x40003b30)
                [!provide]                        PROVIDE (wepkey_128, 0x4000bc40)
                [!provide]                        PROVIDE (wepkey_64, 0x4000bb3c)
                [!provide]                        PROVIDE (xthal_bcopy, 0x40000688)
                [!provide]                        PROVIDE (xthal_copy123, 0x4000074c)
                [!provide]                        PROVIDE (xthal_get_ccompare, 0x4000dd4c)
                [!provide]                        PROVIDE (xthal_get_ccount, 0x4000dd38)
                [!provide]                        PROVIDE (xthal_get_interrupt, 0x4000dd58)
                [!provide]                        PROVIDE (xthal_get_intread, 0x4000dd58)
                [!provide]                        PROVIDE (xthal_memcpy, 0x400006c4)
                [!provide]                        PROVIDE (xthal_set_ccompare, 0x4000dd40)
                [!provide]                        PROVIDE (xthal_set_intclear, 0x4000dd60)
                [!provide]                        PROVIDE (xthal_spill_registers_into_stack_nw, 0x4000e320)
                [!provide]                        PROVIDE (xthal_window_spill, 0x4000e324)
                [!provide]                        PROVIDE (xthal_window_spill_nw, 0x4000e320)
                0x000000003fffccf0                PROVIDE (Te0, 0x3fffccf0)
                [!provide]                        PROVIDE (Td0, 0x3fffd100)
                [!provide]                        PROVIDE (Td4s, 0x3fffd500)
                0x000000003fffd0f0                PROVIDE (rcons, 0x3fffd0f0)
                [!provide]                        PROVIDE (UartDev, 0x3fffde10)
                0x000000003fffc714                PROVIDE (flashchip, 0x3fffc714)
OUTPUT(build/app.out elf32-xtensa-le)

.xtensa.info    0x0000000000000000       0x38
 .xtensa.info   0x0000000000000000       0x38 /opt/esp-open-sdk/sdk/lib/libmain.a(debug-vector.o)
 .xtensa.info   0x0000000000000038        0x0 /opt/esp-open-sdk/sdk/lib/libmain.a(double-vector.o)
 .xtensa.info   0x0000000000000038        0x0 /opt/esp-open-sdk/sdk/lib/libmain.a(kernel-vector.o)
 .xtensa.info   0x0000000000000038        0x0 /opt/esp-open-sdk/sdk/lib/libmain.a(nmi-vector.o)
 .xtensa.info   0x0000000000000038        0x0 /opt/esp-open-sdk/sdk/lib/libmain.a(user-vector.o)
 .xtensa.info   0x0000000000000038        0x0 /opt/esp-open-sdk/sdk/lib/libmain.a(vector.o)
 .xtensa.info   0x0000000000000038        0x0 /opt/esp-open-sdk/sdk/lib/libmain.a(app_main.o)
 .xtensa.info   0x0000000000000038        0x0 /opt/esp-open-sdk/sdk/lib/libmain.a(ets_timer.o)
 .xtensa.info   0x0000000000000038        0x0 /opt/esp-open-sdk/sdk/lib/libmain.a(mem_manager.o)
 .xtensa.info   0x0000000000000038        0x0 /opt/esp-open-sdk/sdk/lib/libmain.a(spi_flash.o)
 .xtensa.info   0x0000000000000038        0x0 /opt/esp-open-sdk/sdk/lib/libmain.a(user_interface.o)
 .xtensa.info   0x0000000000000038        0x0 /opt/esp-open-sdk/sdk/lib/libmain.a(user_rf_cal_sector_set.o)
 .xtensa.info   0x0000000000000038        0x0 /opt/esp-open-sdk/sdk/lib/libmain.a(eagle_lib.o)
 .xtensa.info   0x0000000000000038        0x0 /opt/esp-open-sdk/sdk/lib/libmain.a(eagle_lwip_if.o)
 .xtensa.info   0x0000000000000038        0x0 build/app_app.a(user_main.o)
 .xtensa.info   0x0000000000000038        0x0 build/app_app.a(esp_nano_httpd.o)
 .xtensa.info   0x0000000000000038        0x0 build/app_app.a(nano_httpd_wifi_util.o)
 .xtensa.info   0x0000000000000038        0x0 /opt/esp-open-sdk/xtensa-lx106-elf/lib/gcc/xtensa-lx106-elf/4.8.5/../../../../xtensa-lx106-elf/lib/libc.a(lib_a-atoi.o)
 .xtensa.info   0x0000000000000038        0x0 /opt/esp-open-sdk/xtensa-lx106-elf/lib/gcc/xtensa-lx106-elf/4.8.5/../../../../xtensa-lx106-elf/lib/libc.a(lib_a-memcpy.o)
 .xtensa.info   0x0000000000000038        0x0 /opt/esp-open-sdk/xtensa-lx106-elf/lib/gcc/xtensa-lx106-elf/4.8.5/../../../../xtensa-lx106-elf/lib/libc.a(lib_a-memset.o)
 .xtensa.info   0x0000000000000038        0x0 /opt/esp-open-sdk/xtensa-lx106-elf/lib/gcc/xtensa-lx106-elf/4.8.5/../../../../xtensa-lx106-elf/lib/libc.a(lib_a-strchr.o)
 .xtensa.info   0x0000000000000038        0x0 /opt/esp-open-sdk/xtensa-lx106-elf/lib/gcc/xtensa-lx106-elf/4.8.5/../../../../xtensa-lx106-elf/lib/libc.a(lib_a-strcmp.o)
 .xtensa.info   0x0000000000000038        0x0 /opt/esp-open-sdk/xtensa-lx106-elf/lib/gcc/xtensa-lx106-elf/4.8.5/../../../../xtensa-lx106-elf/lib/libc.a(lib_a-strlen.o)
 .xtensa.info   0x0000000000000038        0x0 /opt/esp-open-sdk/xtensa-lx106-elf/lib/gcc/xtensa-lx106-elf/4.8.5/../../../../xtensa-lx106-elf/lib/libc.a(lib_a-strstr.o)
 .xtensa.info   0x0000000000000038        0x0 /opt/esp-open-sdk/xtensa-lx106-elf/lib/gcc/xtensa-lx106-elf/4.8.5/../../../../xtensa-lx106-elf/lib/libc.a(lib_a-strtok.o)
 .xtensa.info   0x0000000000000038        0x0 /opt/esp-open-sdk/xtensa-lx106-elf/lib/gcc/xtensa-lx106-elf/4.8.5/../../../../xtensa-lx106-elf/lib/libc.a(lib_a-strtok_r.o)
 .xtensa.info   0x0000000000000038        0x0 /opt/esp-open-sdk/xtensa-lx106-elf/lib/gcc/xtensa-lx106-elf/4.8.5/../../../../xtensa-lx106-elf/lib/libc.a(lib_a-strtol.o)
 .xtensa.info   0x0000000000000038        0x0 /opt/esp-open-sdk/xtensa-lx106-elf/lib/gcc/xtensa-lx106-elf/4.8.5/../../../../xtensa-lx106-elf/lib/libc.a(lib_a-ctype_.o)
 .xtensa.info   0x0000000000000038        0x0 /opt/esp-open-sdk/xtensa-lx106-elf/lib/gcc/xtensa-lx106-elf/4.8.5/../../../../xtensa-lx106-elf/lib/libc.a(lib_a-impure.o)
 .xtensa.info   0x0000000000000038        0x0 /opt/esp-open-sdk/xtensa-lx106-elf/xtensa-lx106-elf/sysroot/usr/lib/libhal.a(int_asm--set_intclear.o)
 .xtensa.info   0x0000000000000038        0x0 /opt/esp-open-sdk/sdk/lib/libpp.a(if_hwctrl.o)
 .xtensa.info   0x0000000000000038        0x0 /opt/esp-open-sdk/sdk/lib/libpp.a(lmac.o)
 .xtensa.info   0x0000000000000038        0x0 /opt/esp-open-sdk/sdk/lib/libpp.a(pm.o)
 .xtensa.info   0x0000000000000038        0x0 /opt/esp-open-sdk/sdk/lib/libpp.a(pm_for_bcn_only_mode.o)
 .xtensa.info   0x0000000000000038        0x0 /opt/esp-open-sdk/sdk/lib/libpp.a(pp.o)
 .xtensa.info   0x0000000000000038        0x0 /opt/esp-open-sdk/sdk/lib/libpp.a(rate_control.o)
 .xtensa.info   0x0000000000000038        0x0 /opt/esp-open-sdk/sdk/lib/libpp.a(trc.o)
 .xtensa.info   0x0000000000000038        0x0 /opt/esp-open-sdk/sdk/lib/libpp.a(wdev.o)
 .xtensa.info   0x0000000000000038        0x0 /opt/esp-open-sdk/sdk/lib/libpp.a(esf_buf.o)
 .xtensa.info   0x0000000000000038        0x0 /opt/esp-open-sdk/sdk/lib/libphy.a(phy.o)
 .xtensa.info   0x0000000000000038        0x0 /opt/esp-open-sdk/sdk/lib/libphy.a(phy_chip_v6_ana.o)
 .xtensa.info   0x0000000000000038        0x0 /opt/esp-open-sdk/sdk/lib/libphy.a(phy_chip_v6.o)
 .xtensa.info   0x0000000000000038        0x0 /opt/esp-open-sdk/sdk/lib/libphy.a(phy_chip_v6_cal.o)
 .xtensa.info   0x0000000000000038        0x0 /opt/esp-open-sdk/sdk/lib/libphy.a(phy_chip_v6_unused.o)
 .xtensa.info   0x0000000000000038        0x0 /opt/esp-open-sdk/sdk/lib/libphy.a(phy_sleep.o)
 .xtensa.info   0x0000000000000038        0x0 /opt/esp-open-sdk/sdk/lib/libnet80211.a(ieee80211.o)
 .xtensa.info   0x0000000000000038        0x0 /opt/esp-open-sdk/sdk/lib/libnet80211.a(ieee80211_crypto.o)
 .xtensa.info   0x0000000000000038        0x0 /opt/esp-open-sdk/sdk/lib/libnet80211.a(ieee80211_ets.o)
 .xtensa.info   0x0000000000000038        0x0 /opt/esp-open-sdk/sdk/lib/libnet80211.a(ieee80211_hostap.o)
 .xtensa.info   0x0000000000000038        0x0 /opt/esp-open-sdk/sdk/lib/libnet80211.a(ieee80211_ht.o)
 .xtensa.info   0x0000000000000038        0x0 /opt/esp-open-sdk/sdk/lib/libnet80211.a(ieee80211_input.o)
 .xtensa.info   0x0000000000000038        0x0 /opt/esp-open-sdk/sdk/lib/libnet80211.a(ieee80211_mesh_quick.o)
 .xtensa.info   0x0000000000000038        0x0 /opt/esp-open-sdk/sdk/lib/libnet80211.a(ieee80211_output.o)
 .xtensa.info   0x0000000000000038        0x0 /opt/esp-open-sdk/sdk/lib/libnet80211.a(ieee80211_phy.o)
 .xtensa.info   0x0000000000000038        0x0 /opt/esp-open-sdk/sdk/lib/libnet80211.a(ieee80211_power.o)
 .xtensa.info   0x0000000000000038        0x0 /opt/esp-open-sdk/sdk/lib/libnet80211.a(ieee80211_proto.o)
 .xtensa.info   0x0000000000000038        0x0 /opt/esp-open-sdk/sdk/lib/libnet80211.a(ieee80211_regdomain.o)
 .xtensa.info   0x0000000000000038        0x0 /opt/esp-open-sdk/sdk/lib/libnet80211.a(ieee80211_rfid.o)
 .xtensa.info   0x0000000000000038        0x0 /opt/esp-open-sdk/sdk/lib/libnet80211.a(ieee80211_scan.o)
 .xtensa.info   0x0000000000000038        0x0 /opt/esp-open-sdk/sdk/lib/libnet80211.a(ieee80211_sta.o)
 .xtensa.info   0x0000000000000038        0x0 /opt/esp-open-sdk/sdk/lib/libnet80211.a(wl_chm.o)
 .xtensa.info   0x0000000000000038        0x0 /opt/esp-open-sdk/sdk/lib/libnet80211.a(wl_cnx.o)
 .xtensa.info   0x0000000000000038        0x0 /opt/esp-open-sdk/sdk/lib/libnet80211.a(ieee80211_action.o)
 .xtensa.info   0x0000000000000038        0x0 /opt/esp-open-sdk/sdk/lib/libnet80211.a(ieee80211_action_vendor.o)
 .xtensa.info   0x0000000000000038        0x0 /opt/esp-open-sdk/sdk/lib/libnet80211.a(ieee80211_crypto_ccmp.o)
 .xtensa.info   0x0000000000000038        0x0 /opt/esp-open-sdk/sdk/lib/libnet80211.a(ieee80211_ie_vendor.o)
 .xtensa.info   0x0000000000000038        0x0 /opt/esp-open-sdk/sdk/lib/liblwip.a(dhcp.o)
 .xtensa.info   0x0000000000000038        0x0 /opt/esp-open-sdk/sdk/lib/liblwip.a(dhcpserver.o)
 .xtensa.info   0x0000000000000038        0x0 /opt/esp-open-sdk/sdk/lib/liblwip.a(dns.o)
 .xtensa.info   0x0000000000000038        0x0 /opt/esp-open-sdk/sdk/lib/liblwip.a(espconn.o)
 .xtensa.info   0x0000000000000038        0x0 /opt/esp-open-sdk/sdk/lib/liblwip.a(espconn_tcp.o)
 .xtensa.info   0x0000000000000038        0x0 /opt/esp-open-sdk/sdk/lib/liblwip.a(espconn_udp.o)
 .xtensa.info   0x0000000000000038        0x0 /opt/esp-open-sdk/sdk/lib/liblwip.a(etharp.o)
 .xtensa.info   0x0000000000000038        0x0 /opt/esp-open-sdk/sdk/lib/liblwip.a(igmp.o)
 .xtensa.info   0x0000000000000038        0x0 /opt/esp-open-sdk/sdk/lib/liblwip.a(inet_chksum.o)
 .xtensa.info   0x0000000000000038        0x0 /opt/esp-open-sdk/sdk/lib/liblwip.a(init.o)
 .xtensa.info   0x0000000000000038        0x0 /opt/esp-open-sdk/sdk/lib/liblwip.a(ip_addr.o)
 .xtensa.info   0x0000000000000038        0x0 /opt/esp-open-sdk/sdk/lib/liblwip.a(ip.o)
 .xtensa.info   0x0000000000000038        0x0 /opt/esp-open-sdk/sdk/lib/liblwip.a(memp.o)
 .xtensa.info   0x0000000000000038        0x0 /opt/esp-open-sdk/sdk/lib/liblwip.a(netif.o)
 .xtensa.info   0x0000000000000038        0x0 /opt/esp-open-sdk/sdk/lib/liblwip.a(pbuf.o)
 .xtensa.info   0x0000000000000038        0x0 /opt/esp-open-sdk/sdk/lib/liblwip.a(raw.o)
 .xtensa.info   0x0000000000000038        0x0 /opt/esp-open-sdk/sdk/lib/liblwip.a(tcp_in.o)
 .xtensa.info   0x0000000000000038        0x0 /opt/esp-open-sdk/sdk/lib/liblwip.a(tcp.o)
 .xtensa.info   0x0000000000000038        0x0 /opt/esp-open-sdk/sdk/lib/liblwip.a(tcp_out.o)
 .xtensa.info   0x0000000000000038        0x0 /opt/esp-open-sdk/sdk/lib/liblwip.a(timers.o)
 .xtensa.info   0x0000000000000038        0x0 /opt/esp-open-sdk/sdk/lib/liblwip.a(udp.o)
 .xtensa.info   0x0000000000000038        0x0 /opt/esp-open-sdk/sdk/lib/liblwip.a(espconn_buf.o)
 .xtensa.info   0x0000000000000038        0x0 /opt/esp-open-sdk/sdk/lib/liblwip.a(icmp.o)
 .xtensa.info   0x0000000000000038        0x0 /opt/esp-open-sdk/sdk/lib/libwpa.a(ap_config.o)
 .xtensa.info   0x0000000000000038        0x0 /opt/esp-open-sdk/sdk/lib/libwpa.a(common.o)
 .xtensa.info   0x0000000000000038        0x0 /opt/esp-open-sdk/sdk/lib/libwpa.a(os_xtensa.o)
 .xtensa.info   0x0000000000000038        0x0 /opt/esp-open-sdk/sdk/lib/libwpa.a(wpa_auth.o)
 .xtensa.info   0x0000000000000038        0x0 /opt/esp-open-sdk/sdk/lib/libwpa.a(wpa_auth_ie.o)
 .xtensa.info   0x0000000000000038        0x0 /opt/esp-open-sdk/sdk/lib/libwpa.a(wpa.o)
 .xtensa.info   0x0000000000000038        0x0 /opt/esp-open-sdk/sdk/lib/libwpa.a(wpa_common.o)
 .xtensa.info   0x0000000000000038        0x0 /opt/esp-open-sdk/sdk/lib/libwpa.a(wpa_debug.o)
 .xtensa.info   0x0000000000000038        0x0 /opt/esp-open-sdk/sdk/lib/libwpa.a(wpa_ie.o)
 .xtensa.info   0x0000000000000038        0x0 /opt/esp-open-sdk/sdk/lib/libwpa.a(wpa_main.o)
 .xtensa.info   0x0000000000000038        0x0 /opt/esp-open-sdk/sdk/lib/libwpa.a(wpas_glue.o)
 .xtensa.info   0x0000000000000038        0x0 /opt/esp-open-sdk/sdk/lib/libwpa.a(aes-wrap.o)
 .xtensa.info   0x0000000000000038        0x0 /opt/esp-open-sdk/sdk/lib/libwpa.a(aes-internal-enc.o)
 .xtensa.info   0x0000000000000038        0x0 /opt/esp-open-sdk/sdk/lib/libwpa.a(aes-internal.o)
 .xtensa.info   0x0000000000000038        0x0 /opt/esp-open-sdk/sdk/lib/libjson.a(jsontree.o)
 .xtensa.info   0x0000000000000038        0x0 /opt/esp-open-sdk/xtensa-lx106-elf/lib/gcc/xtensa-lx106-elf/4.8.5/../../../../xtensa-lx106-elf/lib/libc.a(lib_a-memchr.o)
 .xtensa.info   0x0000000000000038        0x0 /opt/esp-open-sdk/sdk/lib/libgcc.a(_modsi3.o)
 .xtensa.info   0x0000000000000038        0x0 /opt/esp-open-sdk/sdk/lib/libgcc.a(_ashrdi3.o)
 .xtensa.info   0x0000000000000038        0x0 /opt/esp-open-sdk/sdk/lib/libgcc.a(_mulsf3.o)
 .xtensa.info   0x0000000000000038        0x0 /opt/esp-open-sdk/sdk/lib/libgcc.a(_divsf3.o)
 .xtensa.info   0x0000000000000038        0x0 /opt/esp-open-sdk/sdk/lib/libgcc.a(_fixsfsi.o)
 .xtensa.info   0x0000000000000038        0x0 /opt/esp-open-sdk/sdk/lib/libnet80211.a(ieee80211_crypto_tkip.o)
 .xtensa.info   0x0000000000000038        0x0 /opt/esp-open-sdk/sdk/lib/libnet80211.a(ieee80211_crypto_wep.o)

.xt.prop        0x0000000000000000    0x29280
 .xt.prop       0x0000000000000000       0x18 /opt/esp-open-sdk/sdk/lib/libmain.a(debug-vector.o)
 .xt.prop       0x0000000000000018       0x18 /opt/esp-open-sdk/sdk/lib/libmain.a(double-vector.o)
 .xt.prop       0x0000000000000030       0x18 /opt/esp-open-sdk/sdk/lib/libmain.a(kernel-vector.o)
 .xt.prop       0x0000000000000048       0x30 /opt/esp-open-sdk/sdk/lib/libmain.a(nmi-vector.o)
                                         0x3c (size before relaxing)
 .xt.prop       0x0000000000000078       0x30 /opt/esp-open-sdk/sdk/lib/libmain.a(user-vector.o)
                                         0x3c (size before relaxing)
 .xt.prop       0x00000000000000a8       0x18 /opt/esp-open-sdk/sdk/lib/libmain.a(vector.o)
 .xt.prop       0x00000000000000c0     0x10a4 /opt/esp-open-sdk/sdk/lib/libmain.a(app_main.o)
                                       0x114c (size before relaxing)
 .xt.prop       0x0000000000001164      0x5e8 /opt/esp-open-sdk/sdk/lib/libmain.a(ets_timer.o)
                                        0x630 (size before relaxing)
 .xt.prop       0x000000000000174c      0x3e4 /opt/esp-open-sdk/sdk/lib/libmain.a(mem_manager.o)
                                        0x474 (size before relaxing)
 .xt.prop       0x0000000000001b30      0x5ac /opt/esp-open-sdk/sdk/lib/libmain.a(spi_flash.o)
                                        0x5c4 (size before relaxing)
 .xt.prop       0x00000000000020dc     0x3a68 /opt/esp-open-sdk/sdk/lib/libmain.a(user_interface.o)
                                       0x3bf4 (size before relaxing)
 .xt.prop       0x0000000000005b44       0x24 /opt/esp-open-sdk/sdk/lib/libmain.a(user_rf_cal_sector_set.o)
                                         0x30 (size before relaxing)
 .xt.prop       0x0000000000005b68      0x858 /opt/esp-open-sdk/sdk/lib/libmain.a(eagle_lib.o)
 .xt.prop       0x00000000000063c0      0x270 /opt/esp-open-sdk/sdk/lib/libmain.a(eagle_lwip_if.o)
                                        0x2a0 (size before relaxing)
 .xt.prop       0x0000000000006630       0xd8 build/app_app.a(user_main.o)
                                         0xf0 (size before relaxing)
 .xt.prop       0x0000000000006708      0x2dc build/app_app.a(esp_nano_httpd.o)
                                        0x324 (size before relaxing)
 .xt.prop       0x00000000000069e4      0x24c build/app_app.a(nano_httpd_wifi_util.o)
                                        0x2ac (size before relaxing)
 .xt.prop       0x0000000000006c30       0x3c /opt/esp-open-sdk/xtensa-lx106-elf/lib/gcc/xtensa-lx106-elf/4.8.5/../../../../xtensa-lx106-elf/lib/libc.a(lib_a-atoi.o)
                                         0x48 (size before relaxing)
 .xt.prop       0x0000000000006c6c      0x174 /opt/esp-open-sdk/xtensa-lx106-elf/lib/gcc/xtensa-lx106-elf/4.8.5/../../../../xtensa-lx106-elf/lib/libc.a(lib_a-memcpy.o)
 .xt.prop       0x0000000000006de0       0xe4 /opt/esp-open-sdk/xtensa-lx106-elf/lib/gcc/xtensa-lx106-elf/4.8.5/../../../../xtensa-lx106-elf/lib/libc.a(lib_a-memset.o)
 .xt.prop       0x0000000000006ec4       0x60 /opt/esp-open-sdk/xtensa-lx106-elf/lib/gcc/xtensa-lx106-elf/4.8.5/../../../../xtensa-lx106-elf/lib/libc.a(lib_a-strchr.o)
 .xt.prop       0x0000000000006f24      0x108 /opt/esp-open-sdk/xtensa-lx106-elf/lib/gcc/xtensa-lx106-elf/4.8.5/../../../../xtensa-lx106-elf/lib/libc.a(lib_a-strcmp.o)
 .xt.prop       0x000000000000702c       0xa8 /opt/esp-open-sdk/xtensa-lx106-elf/lib/gcc/xtensa-lx106-elf/4.8.5/../../../../xtensa-lx106-elf/lib/libc.a(lib_a-strlen.o)
                                         0xb4 (size before relaxing)
 .xt.prop       0x00000000000070d4       0x60 /opt/esp-open-sdk/xtensa-lx106-elf/lib/gcc/xtensa-lx106-elf/4.8.5/../../../../xtensa-lx106-elf/lib/libc.a(lib_a-strstr.o)
 .xt.prop       0x0000000000007134       0x30 /opt/esp-open-sdk/xtensa-lx106-elf/lib/gcc/xtensa-lx106-elf/4.8.5/../../../../xtensa-lx106-elf/lib/libc.a(lib_a-strtok.o)
 .xt.prop       0x0000000000007164       0xfc /opt/esp-open-sdk/xtensa-lx106-elf/lib/gcc/xtensa-lx106-elf/4.8.5/../../../../xtensa-lx106-elf/lib/libc.a(lib_a-strtok_r.o)
                                        0x108 (size before relaxing)
 .xt.prop       0x0000000000007260      0x15c /opt/esp-open-sdk/xtensa-lx106-elf/lib/gcc/xtensa-lx106-elf/4.8.5/../../../../xtensa-lx106-elf/lib/libc.a(lib_a-strtol.o)
 .xt.prop       0x00000000000073bc        0xc /opt/esp-open-sdk/xtensa-lx106-elf/lib/gcc/xtensa-lx106-elf/4.8.5/../../../../xtensa-lx106-elf/lib/libc.a(lib_a-ctype_.o)
 .xt.prop       0x00000000000073c8       0x24 /opt/esp-open-sdk/xtensa-lx106-elf/lib/gcc/xtensa-lx106-elf/4.8.5/../../../../xtensa-lx106-elf/lib/libc.a(lib_a-impure.o)
 .xt.prop       0x00000000000073ec       0x24 /opt/esp-open-sdk/xtensa-lx106-elf/xtensa-lx106-elf/sysroot/usr/lib/libhal.a(int_asm--set_intclear.o)
 .xt.prop       0x0000000000007410      0x528 /opt/esp-open-sdk/sdk/lib/libpp.a(if_hwctrl.o)
                                        0x558 (size before relaxing)
 .xt.prop       0x0000000000007938     0x1500 /opt/esp-open-sdk/sdk/lib/libpp.a(lmac.o)
                                       0x1554 (size before relaxing)
 .xt.prop       0x0000000000008e38     0x1728 /opt/esp-open-sdk/sdk/lib/libpp.a(pm.o)
                                       0x180c (size before relaxing)
 .xt.prop       0x000000000000a560      0x9d8 /opt/esp-open-sdk/sdk/lib/libpp.a(pm_for_bcn_only_mode.o)
                                        0xa08 (size before relaxing)
 .xt.prop       0x000000000000af38     0x195c /opt/esp-open-sdk/sdk/lib/libpp.a(pp.o)
                                       0x1b0c (size before relaxing)
 .xt.prop       0x000000000000c894      0x1bc /opt/esp-open-sdk/sdk/lib/libpp.a(rate_control.o)
                                        0x1d4 (size before relaxing)
 .xt.prop       0x000000000000ca50     0x1140 /opt/esp-open-sdk/sdk/lib/libpp.a(trc.o)
                                       0x11a0 (size before relaxing)
 .xt.prop       0x000000000000db90     0x1350 /opt/esp-open-sdk/sdk/lib/libpp.a(wdev.o)
                                       0x1428 (size before relaxing)
 .xt.prop       0x000000000000eee0      0x264 /opt/esp-open-sdk/sdk/lib/libpp.a(esf_buf.o)
                                        0x2e8 (size before relaxing)
 .xt.prop       0x000000000000f144      0x1d4 /opt/esp-open-sdk/sdk/lib/libphy.a(phy.o)
                                        0x1e0 (size before relaxing)
 .xt.prop       0x000000000000f318      0xdb0 /opt/esp-open-sdk/sdk/lib/libphy.a(phy_chip_v6_ana.o)
                                        0xdc8 (size before relaxing)
 .xt.prop       0x00000000000100c8     0x20e8 /opt/esp-open-sdk/sdk/lib/libphy.a(phy_chip_v6.o)
                                       0x22a4 (size before relaxing)
 .xt.prop       0x00000000000121b0     0x1098 /opt/esp-open-sdk/sdk/lib/libphy.a(phy_chip_v6_cal.o)
                                       0x10f8 (size before relaxing)
 .xt.prop       0x0000000000013248       0x60 /opt/esp-open-sdk/sdk/lib/libphy.a(phy_chip_v6_unused.o)
                                         0x6c (size before relaxing)
 .xt.prop       0x00000000000132a8      0x87c /opt/esp-open-sdk/sdk/lib/libphy.a(phy_sleep.o)
                                        0x8d0 (size before relaxing)
 .xt.prop       0x0000000000013b24      0x4a4 /opt/esp-open-sdk/sdk/lib/libnet80211.a(ieee80211.o)
                                        0x4c8 (size before relaxing)
 .xt.prop       0x0000000000013fc8      0x15c /opt/esp-open-sdk/sdk/lib/libnet80211.a(ieee80211_crypto.o)
 .xt.prop       0x0000000000014124       0x48 /opt/esp-open-sdk/sdk/lib/libnet80211.a(ieee80211_ets.o)
 .xt.prop       0x000000000001416c      0xe70 /opt/esp-open-sdk/sdk/lib/libnet80211.a(ieee80211_hostap.o)
                                        0xf54 (size before relaxing)
 .xt.prop       0x0000000000014fdc      0x684 /opt/esp-open-sdk/sdk/lib/libnet80211.a(ieee80211_ht.o)
                                        0x690 (size before relaxing)
 .xt.prop       0x0000000000015660      0x900 /opt/esp-open-sdk/sdk/lib/libnet80211.a(ieee80211_input.o)
                                        0x90c (size before relaxing)
 .xt.prop       0x0000000000015f60      0x468 /opt/esp-open-sdk/sdk/lib/libnet80211.a(ieee80211_mesh_quick.o)
 .xt.prop       0x00000000000163c8     0x1314 /opt/esp-open-sdk/sdk/lib/libnet80211.a(ieee80211_output.o)
                                       0x1320 (size before relaxing)
 .xt.prop       0x00000000000176dc      0x108 /opt/esp-open-sdk/sdk/lib/libnet80211.a(ieee80211_phy.o)
 .xt.prop       0x00000000000177e4      0x1bc /opt/esp-open-sdk/sdk/lib/libnet80211.a(ieee80211_power.o)
 .xt.prop       0x00000000000179a0      0x12c /opt/esp-open-sdk/sdk/lib/libnet80211.a(ieee80211_proto.o)
                                        0x138 (size before relaxing)
 .xt.prop       0x0000000000017acc      0x234 /opt/esp-open-sdk/sdk/lib/libnet80211.a(ieee80211_regdomain.o)
 .xt.prop       0x0000000000017d00      0x12c /opt/esp-open-sdk/sdk/lib/libnet80211.a(ieee80211_rfid.o)
 .xt.prop       0x0000000000017e2c      0xc60 /opt/esp-open-sdk/sdk/lib/libnet80211.a(ieee80211_scan.o)
                                        0xcfc (size before relaxing)
 .xt.prop       0x0000000000018a8c      0xab0 /opt/esp-open-sdk/sdk/lib/libnet80211.a(ieee80211_sta.o)
                                        0xaec (size before relaxing)
 .xt.prop       0x000000000001953c      0x2dc /opt/esp-open-sdk/sdk/lib/libnet80211.a(wl_chm.o)
                                        0x2e8 (size before relaxing)
 .xt.prop       0x0000000000019818     0x1260 /opt/esp-open-sdk/sdk/lib/libnet80211.a(wl_cnx.o)
                                       0x12d8 (size before relaxing)
 .xt.prop       0x000000000001aa78      0x33c /opt/esp-open-sdk/sdk/lib/libnet80211.a(ieee80211_action.o)
 .xt.prop       0x000000000001adb4      0x480 /opt/esp-open-sdk/sdk/lib/libnet80211.a(ieee80211_action_vendor.o)
                                        0x4c8 (size before relaxing)
 .xt.prop       0x000000000001b234       0xcc /opt/esp-open-sdk/sdk/lib/libnet80211.a(ieee80211_crypto_ccmp.o)
                                         0xd8 (size before relaxing)
 .xt.prop       0x000000000001b300      0x114 /opt/esp-open-sdk/sdk/lib/libnet80211.a(ieee80211_ie_vendor.o)
 .xt.prop       0x000000000001b414      0xd98 /opt/esp-open-sdk/sdk/lib/liblwip.a(dhcp.o)
                                        0xdbc (size before relaxing)
 .xt.prop       0x000000000001c1ac      0xad4 /opt/esp-open-sdk/sdk/lib/liblwip.a(dhcpserver.o)
                                        0xb34 (size before relaxing)
 .xt.prop       0x000000000001cc80      0x45c /opt/esp-open-sdk/sdk/lib/liblwip.a(dns.o)
                                        0x4c8 (size before relaxing)
 .xt.prop       0x000000000001d0dc      0xf90 /opt/esp-open-sdk/sdk/lib/liblwip.a(espconn.o)
                                        0xff0 (size before relaxing)
 .xt.prop       0x000000000001e06c      0xee8 /opt/esp-open-sdk/sdk/lib/liblwip.a(espconn_tcp.o)
                                        0xef4 (size before relaxing)
 .xt.prop       0x000000000001ef54      0x330 /opt/esp-open-sdk/sdk/lib/liblwip.a(espconn_udp.o)
                                        0x33c (size before relaxing)
 .xt.prop       0x000000000001f284      0x708 /opt/esp-open-sdk/sdk/lib/liblwip.a(etharp.o)
                                        0x750 (size before relaxing)
 .xt.prop       0x000000000001f98c      0x63c /opt/esp-open-sdk/sdk/lib/liblwip.a(igmp.o)
                                        0x66c (size before relaxing)
 .xt.prop       0x000000000001ffc8      0x168 /opt/esp-open-sdk/sdk/lib/liblwip.a(inet_chksum.o)
 .xt.prop       0x0000000000020130       0x24 /opt/esp-open-sdk/sdk/lib/liblwip.a(init.o)
 .xt.prop       0x0000000000020154      0x324 /opt/esp-open-sdk/sdk/lib/liblwip.a(ip_addr.o)
                                        0x330 (size before relaxing)
 .xt.prop       0x0000000000020478      0x438 /opt/esp-open-sdk/sdk/lib/liblwip.a(ip.o)
                                        0x480 (size before relaxing)
 .xt.prop       0x00000000000208b0        0x0 /opt/esp-open-sdk/sdk/lib/liblwip.a(memp.o)
                                         0x18 (size before relaxing)
 .xt.prop       0x00000000000208b0      0x33c /opt/esp-open-sdk/sdk/lib/liblwip.a(netif.o)
                                        0x360 (size before relaxing)
 .xt.prop       0x0000000000020bec      0x7a4 /opt/esp-open-sdk/sdk/lib/liblwip.a(pbuf.o)
                                        0x7b0 (size before relaxing)
 .xt.prop       0x0000000000021390      0x294 /opt/esp-open-sdk/sdk/lib/liblwip.a(raw.o)
                                        0x2ac (size before relaxing)
 .xt.prop       0x0000000000021624      0xc6c /opt/esp-open-sdk/sdk/lib/liblwip.a(tcp_in.o)
                                        0xcfc (size before relaxing)
 .xt.prop       0x0000000000022290      0xcfc /opt/esp-open-sdk/sdk/lib/liblwip.a(tcp.o)
                                        0xd68 (size before relaxing)
 .xt.prop       0x0000000000022f8c      0x960 /opt/esp-open-sdk/sdk/lib/liblwip.a(tcp_out.o)
                                        0x96c (size before relaxing)
 .xt.prop       0x00000000000238ec      0x354 /opt/esp-open-sdk/sdk/lib/liblwip.a(timers.o)
                                        0x384 (size before relaxing)
 .xt.prop       0x0000000000023c40      0x5a0 /opt/esp-open-sdk/sdk/lib/liblwip.a(udp.o)
                                        0x5b8 (size before relaxing)
 .xt.prop       0x00000000000241e0      0x5c4 /opt/esp-open-sdk/sdk/lib/liblwip.a(espconn_buf.o)
                                        0x5d0 (size before relaxing)
 .xt.prop       0x00000000000247a4      0x114 /opt/esp-open-sdk/sdk/lib/liblwip.a(icmp.o)
 .xt.prop       0x00000000000248b8      0x2e8 /opt/esp-open-sdk/sdk/lib/libwpa.a(ap_config.o)
                                        0x2f4 (size before relaxing)
 .xt.prop       0x0000000000024ba0      0x21c /opt/esp-open-sdk/sdk/lib/libwpa.a(common.o)
                                        0x228 (size before relaxing)
 .xt.prop       0x0000000000024dbc       0xf0 /opt/esp-open-sdk/sdk/lib/libwpa.a(os_xtensa.o)
                                         0xfc (size before relaxing)
 .xt.prop       0x0000000000024eac     0x1668 /opt/esp-open-sdk/sdk/lib/libwpa.a(wpa_auth.o)
 .xt.prop       0x0000000000026514      0x480 /opt/esp-open-sdk/sdk/lib/libwpa.a(wpa_auth_ie.o)
                                        0x48c (size before relaxing)
 .xt.prop       0x0000000000026994      0xd8c /opt/esp-open-sdk/sdk/lib/libwpa.a(wpa.o)
                                        0xdb0 (size before relaxing)
 .xt.prop       0x0000000000027720      0x7a4 /opt/esp-open-sdk/sdk/lib/libwpa.a(wpa_common.o)
 .xt.prop       0x0000000000027ec4       0xc0 /opt/esp-open-sdk/sdk/lib/libwpa.a(wpa_debug.o)
 .xt.prop       0x0000000000027f84      0x378 /opt/esp-open-sdk/sdk/lib/libwpa.a(wpa_ie.o)
 .xt.prop       0x00000000000282fc      0x330 /opt/esp-open-sdk/sdk/lib/libwpa.a(wpa_main.o)
                                        0x33c (size before relaxing)
 .xt.prop       0x000000000002862c      0x12c /opt/esp-open-sdk/sdk/lib/libwpa.a(wpas_glue.o)
 .xt.prop       0x0000000000028758       0x6c /opt/esp-open-sdk/sdk/lib/libwpa.a(aes-wrap.o)
 .xt.prop       0x00000000000287c4       0xd8 /opt/esp-open-sdk/sdk/lib/libwpa.a(aes-internal-enc.o)
                                         0xe4 (size before relaxing)
 .xt.prop       0x000000000002889c       0xb4 /opt/esp-open-sdk/sdk/lib/libwpa.a(aes-internal.o)
 .xt.prop       0x0000000000028950      0x3b4 /opt/esp-open-sdk/sdk/lib/libjson.a(jsontree.o)
 .xt.prop       0x0000000000028d04       0x48 /opt/esp-open-sdk/xtensa-lx106-elf/lib/gcc/xtensa-lx106-elf/4.8.5/../../../../xtensa-lx106-elf/lib/libc.a(lib_a-memchr.o)
 .xt.prop       0x0000000000028d4c       0x84 /opt/esp-open-sdk/sdk/lib/libgcc.a(_modsi3.o)
 .xt.prop       0x0000000000028dd0       0x3c /opt/esp-open-sdk/sdk/lib/libgcc.a(_ashrdi3.o)
 .xt.prop       0x0000000000028e0c      0x168 /opt/esp-open-sdk/sdk/lib/libgcc.a(_mulsf3.o)
 .xt.prop       0x0000000000028f74      0x15c /opt/esp-open-sdk/sdk/lib/libgcc.a(_divsf3.o)
                                        0x168 (size before relaxing)
 .xt.prop       0x00000000000290d0       0x60 /opt/esp-open-sdk/sdk/lib/libgcc.a(_fixsfsi.o)
                                         0x6c (size before relaxing)
 .xt.prop       0x0000000000029130       0xe4 /opt/esp-open-sdk/sdk/lib/libnet80211.a(ieee80211_crypto_tkip.o)
                                         0xfc (size before relaxing)
 .xt.prop       0x0000000000029214       0x6c /opt/esp-open-sdk/sdk/lib/libnet80211.a(ieee80211_crypto_wep.o)
                                         0x78 (size before relaxing)

.xt.lit         0x0000000000000000     0x1390
 .xt.lit        0x0000000000000000        0x8 /opt/esp-open-sdk/sdk/lib/libmain.a(nmi-vector.o)
                                         0x10 (size before relaxing)
 .xt.lit        0x0000000000000008        0x8 /opt/esp-open-sdk/sdk/lib/libmain.a(user-vector.o)
                                         0x10 (size before relaxing)
 .xt.lit        0x0000000000000010        0x8 /opt/esp-open-sdk/sdk/lib/libmain.a(vector.o)
 .xt.lit        0x0000000000000018       0xa8 /opt/esp-open-sdk/sdk/lib/libmain.a(app_main.o)
                                         0xb0 (size before relaxing)
 .xt.lit        0x00000000000000c0       0x48 /opt/esp-open-sdk/sdk/lib/libmain.a(ets_timer.o)
 .xt.lit        0x0000000000000108       0x40 /opt/esp-open-sdk/sdk/lib/libmain.a(mem_manager.o)
                                         0x60 (size before relaxing)
 .xt.lit        0x0000000000000148       0x80 /opt/esp-open-sdk/sdk/lib/libmain.a(spi_flash.o)
 .xt.lit        0x00000000000001c8      0x230 /opt/esp-open-sdk/sdk/lib/libmain.a(user_interface.o)
                                        0x4e8 (size before relaxing)
 .xt.lit        0x00000000000003f8        0x0 /opt/esp-open-sdk/sdk/lib/libmain.a(user_rf_cal_sector_set.o)
                                          0x8 (size before relaxing)
 .xt.lit        0x00000000000003f8       0x18 /opt/esp-open-sdk/sdk/lib/libmain.a(eagle_lib.o)
 .xt.lit        0x0000000000000410        0x8 /opt/esp-open-sdk/sdk/lib/libmain.a(eagle_lwip_if.o)
                                         0x28 (size before relaxing)
 .xt.lit        0x0000000000000418       0x18 build/app_app.a(user_main.o)
 .xt.lit        0x0000000000000430       0x48 build/app_app.a(esp_nano_httpd.o)
                                         0x58 (size before relaxing)
 .xt.lit        0x0000000000000478       0x28 build/app_app.a(nano_httpd_wifi_util.o)
 .xt.lit        0x00000000000004a0        0x0 /opt/esp-open-sdk/xtensa-lx106-elf/lib/gcc/xtensa-lx106-elf/4.8.5/../../../../xtensa-lx106-elf/lib/libc.a(lib_a-atoi.o)
                                          0x8 (size before relaxing)
 .xt.lit        0x00000000000004a0        0x8 /opt/esp-open-sdk/xtensa-lx106-elf/lib/gcc/xtensa-lx106-elf/4.8.5/../../../../xtensa-lx106-elf/lib/libc.a(lib_a-strcmp.o)
 .xt.lit        0x00000000000004a8        0x0 /opt/esp-open-sdk/xtensa-lx106-elf/lib/gcc/xtensa-lx106-elf/4.8.5/../../../../xtensa-lx106-elf/lib/libc.a(lib_a-strlen.o)
                                          0x8 (size before relaxing)
 .xt.lit        0x00000000000004a8        0x8 /opt/esp-open-sdk/xtensa-lx106-elf/lib/gcc/xtensa-lx106-elf/4.8.5/../../../../xtensa-lx106-elf/lib/libc.a(lib_a-strtok.o)
 .xt.lit        0x00000000000004b0        0x8 /opt/esp-open-sdk/xtensa-lx106-elf/lib/gcc/xtensa-lx106-elf/4.8.5/../../../../xtensa-lx106-elf/lib/libc.a(lib_a-strtol.o)
 .xt.lit        0x00000000000004b8       0x30 /opt/esp-open-sdk/sdk/lib/libpp.a(if_hwctrl.o)
                                         0xa0 (size before relaxing)
 .xt.lit        0x00000000000004e8       0x70 /opt/esp-open-sdk/sdk/lib/libpp.a(lmac.o)
                                        0x130 (size before relaxing)
 .xt.lit        0x0000000000000558       0xe8 /opt/esp-open-sdk/sdk/lib/libpp.a(pm.o)
                                        0x1a8 (size before relaxing)
 .xt.lit        0x0000000000000640       0x50 /opt/esp-open-sdk/sdk/lib/libpp.a(pm_for_bcn_only_mode.o)
                                         0xa8 (size before relaxing)
 .xt.lit        0x0000000000000690       0xe0 /opt/esp-open-sdk/sdk/lib/libpp.a(pp.o)
                                        0x1b0 (size before relaxing)
 .xt.lit        0x0000000000000770       0x18 /opt/esp-open-sdk/sdk/lib/libpp.a(rate_control.o)
                                         0x38 (size before relaxing)
 .xt.lit        0x0000000000000788       0x68 /opt/esp-open-sdk/sdk/lib/libpp.a(trc.o)
                                         0xa8 (size before relaxing)
 .xt.lit        0x00000000000007f0       0xe8 /opt/esp-open-sdk/sdk/lib/libpp.a(wdev.o)
                                        0x1b0 (size before relaxing)
 .xt.lit        0x00000000000008d8       0x18 /opt/esp-open-sdk/sdk/lib/libpp.a(esf_buf.o)
                                         0x20 (size before relaxing)
 .xt.lit        0x00000000000008f0       0x10 /opt/esp-open-sdk/sdk/lib/libphy.a(phy.o)
                                         0x68 (size before relaxing)
 .xt.lit        0x0000000000000900       0x90 /opt/esp-open-sdk/sdk/lib/libphy.a(phy_chip_v6_ana.o)
                                         0xc8 (size before relaxing)
 .xt.lit        0x0000000000000990      0x158 /opt/esp-open-sdk/sdk/lib/libphy.a(phy_chip_v6.o)
                                        0x248 (size before relaxing)
 .xt.lit        0x0000000000000ae8       0x78 /opt/esp-open-sdk/sdk/lib/libphy.a(phy_chip_v6_cal.o)
                                         0xf0 (size before relaxing)
 .xt.lit        0x0000000000000b60       0x70 /opt/esp-open-sdk/sdk/lib/libphy.a(phy_sleep.o)
                                         0xd0 (size before relaxing)
 .xt.lit        0x0000000000000bd0       0x30 /opt/esp-open-sdk/sdk/lib/libnet80211.a(ieee80211.o)
                                         0x50 (size before relaxing)
 .xt.lit        0x0000000000000c00        0x0 /opt/esp-open-sdk/sdk/lib/libnet80211.a(ieee80211_crypto.o)
                                         0x10 (size before relaxing)
 .xt.lit        0x0000000000000c00        0x8 /opt/esp-open-sdk/sdk/lib/libnet80211.a(ieee80211_ets.o)
 .xt.lit        0x0000000000000c08       0x68 /opt/esp-open-sdk/sdk/lib/libnet80211.a(ieee80211_hostap.o)
                                         0x78 (size before relaxing)
 .xt.lit        0x0000000000000c70       0x48 /opt/esp-open-sdk/sdk/lib/libnet80211.a(ieee80211_ht.o)
                                         0x70 (size before relaxing)
 .xt.lit        0x0000000000000cb8       0x38 /opt/esp-open-sdk/sdk/lib/libnet80211.a(ieee80211_input.o)
                                         0x60 (size before relaxing)
 .xt.lit        0x0000000000000cf0       0x18 /opt/esp-open-sdk/sdk/lib/libnet80211.a(ieee80211_mesh_quick.o)
                                         0x28 (size before relaxing)
 .xt.lit        0x0000000000000d08       0x40 /opt/esp-open-sdk/sdk/lib/libnet80211.a(ieee80211_output.o)
                                         0xb8 (size before relaxing)
 .xt.lit        0x0000000000000d48        0x8 /opt/esp-open-sdk/sdk/lib/libnet80211.a(ieee80211_phy.o)
                                         0x18 (size before relaxing)
 .xt.lit        0x0000000000000d50        0x8 /opt/esp-open-sdk/sdk/lib/libnet80211.a(ieee80211_power.o)
                                         0x20 (size before relaxing)
 .xt.lit        0x0000000000000d58       0x18 /opt/esp-open-sdk/sdk/lib/libnet80211.a(ieee80211_proto.o)
 .xt.lit        0x0000000000000d70       0x10 /opt/esp-open-sdk/sdk/lib/libnet80211.a(ieee80211_regdomain.o)
                                         0x20 (size before relaxing)
 .xt.lit        0x0000000000000d80        0x0 /opt/esp-open-sdk/sdk/lib/libnet80211.a(ieee80211_rfid.o)
                                         0x30 (size before relaxing)
 .xt.lit        0x0000000000000d80       0x48 /opt/esp-open-sdk/sdk/lib/libnet80211.a(ieee80211_scan.o)
                                         0xd8 (size before relaxing)
 .xt.lit        0x0000000000000dc8       0x38 /opt/esp-open-sdk/sdk/lib/libnet80211.a(ieee80211_sta.o)
                                         0x68 (size before relaxing)
 .xt.lit        0x0000000000000e00       0x20 /opt/esp-open-sdk/sdk/lib/libnet80211.a(wl_chm.o)
                                         0x60 (size before relaxing)
 .xt.lit        0x0000000000000e20       0x98 /opt/esp-open-sdk/sdk/lib/libnet80211.a(wl_cnx.o)
                                        0x140 (size before relaxing)
 .xt.lit        0x0000000000000eb8       0x20 /opt/esp-open-sdk/sdk/lib/libnet80211.a(ieee80211_action.o)
                                         0x30 (size before relaxing)
 .xt.lit        0x0000000000000ed8       0x20 /opt/esp-open-sdk/sdk/lib/libnet80211.a(ieee80211_action_vendor.o)
                                         0x60 (size before relaxing)
 .xt.lit        0x0000000000000ef8        0x0 /opt/esp-open-sdk/sdk/lib/libnet80211.a(ieee80211_crypto_ccmp.o)
                                         0x10 (size before relaxing)
 .xt.lit        0x0000000000000ef8        0x8 /opt/esp-open-sdk/sdk/lib/libnet80211.a(ieee80211_ie_vendor.o)
                                         0x38 (size before relaxing)
 .xt.lit        0x0000000000000f00       0x50 /opt/esp-open-sdk/sdk/lib/liblwip.a(dhcp.o)
                                         0xc0 (size before relaxing)
 .xt.lit        0x0000000000000f50       0x30 /opt/esp-open-sdk/sdk/lib/liblwip.a(dhcpserver.o)
                                         0xa8 (size before relaxing)
 .xt.lit        0x0000000000000f80       0x20 /opt/esp-open-sdk/sdk/lib/liblwip.a(dns.o)
                                         0x48 (size before relaxing)
 .xt.lit        0x0000000000000fa0       0x30 /opt/esp-open-sdk/sdk/lib/liblwip.a(espconn.o)
                                         0xf0 (size before relaxing)
 .xt.lit        0x0000000000000fd0       0x80 /opt/esp-open-sdk/sdk/lib/liblwip.a(espconn_tcp.o)
                                         0xd0 (size before relaxing)
 .xt.lit        0x0000000000001050       0x18 /opt/esp-open-sdk/sdk/lib/liblwip.a(espconn_udp.o)
                                         0x38 (size before relaxing)
 .xt.lit        0x0000000000001068       0x30 /opt/esp-open-sdk/sdk/lib/liblwip.a(etharp.o)
                                         0x78 (size before relaxing)
 .xt.lit        0x0000000000001098       0x18 /opt/esp-open-sdk/sdk/lib/liblwip.a(igmp.o)
                                         0x70 (size before relaxing)
 .xt.lit        0x00000000000010b0        0x8 /opt/esp-open-sdk/sdk/lib/liblwip.a(init.o)
 .xt.lit        0x00000000000010b8        0x8 /opt/esp-open-sdk/sdk/lib/liblwip.a(ip_addr.o)
                                         0x20 (size before relaxing)
 .xt.lit        0x00000000000010c0       0x10 /opt/esp-open-sdk/sdk/lib/liblwip.a(ip.o)
                                         0x20 (size before relaxing)
 .xt.lit        0x00000000000010d0       0x10 /opt/esp-open-sdk/sdk/lib/liblwip.a(netif.o)
                                         0x40 (size before relaxing)
 .xt.lit        0x00000000000010e0       0x10 /opt/esp-open-sdk/sdk/lib/liblwip.a(pbuf.o)
                                         0x48 (size before relaxing)
 .xt.lit        0x00000000000010f0       0x10 /opt/esp-open-sdk/sdk/lib/liblwip.a(raw.o)
                                         0x20 (size before relaxing)
 .xt.lit        0x0000000000001100       0x18 /opt/esp-open-sdk/sdk/lib/liblwip.a(tcp_in.o)
                                         0x38 (size before relaxing)
 .xt.lit        0x0000000000001118       0x50 /opt/esp-open-sdk/sdk/lib/liblwip.a(tcp.o)
                                         0xb8 (size before relaxing)
 .xt.lit        0x0000000000001168       0x28 /opt/esp-open-sdk/sdk/lib/liblwip.a(tcp_out.o)
                                         0x68 (size before relaxing)
 .xt.lit        0x0000000000001190       0x48 /opt/esp-open-sdk/sdk/lib/liblwip.a(timers.o)
                                         0x68 (size before relaxing)
 .xt.lit        0x00000000000011d8       0x18 /opt/esp-open-sdk/sdk/lib/liblwip.a(udp.o)
                                         0x38 (size before relaxing)
 .xt.lit        0x00000000000011f0       0x38 /opt/esp-open-sdk/sdk/lib/liblwip.a(espconn_buf.o)
 .xt.lit        0x0000000000001228        0x8 /opt/esp-open-sdk/sdk/lib/liblwip.a(icmp.o)
                                         0x10 (size before relaxing)
 .xt.lit        0x0000000000001230       0x18 /opt/esp-open-sdk/sdk/lib/libwpa.a(ap_config.o)
                                         0x40 (size before relaxing)
 .xt.lit        0x0000000000001248       0x10 /opt/esp-open-sdk/sdk/lib/libwpa.a(common.o)
                                         0x18 (size before relaxing)
 .xt.lit        0x0000000000001258        0x8 /opt/esp-open-sdk/sdk/lib/libwpa.a(os_xtensa.o)
                                         0x10 (size before relaxing)
 .xt.lit        0x0000000000001260       0x70 /opt/esp-open-sdk/sdk/lib/libwpa.a(wpa_auth.o)
                                        0x100 (size before relaxing)
 .xt.lit        0x00000000000012d0       0x10 /opt/esp-open-sdk/sdk/lib/libwpa.a(wpa_auth_ie.o)
                                         0x38 (size before relaxing)
 .xt.lit        0x00000000000012e0       0x38 /opt/esp-open-sdk/sdk/lib/libwpa.a(wpa.o)
                                        0x110 (size before relaxing)
 .xt.lit        0x0000000000001318       0x28 /opt/esp-open-sdk/sdk/lib/libwpa.a(wpa_common.o)
                                         0x58 (size before relaxing)
 .xt.lit        0x0000000000001340        0x8 /opt/esp-open-sdk/sdk/lib/libwpa.a(wpa_debug.o)
 .xt.lit        0x0000000000001348        0x0 /opt/esp-open-sdk/sdk/lib/libwpa.a(wpa_ie.o)
                                         0x18 (size before relaxing)
 .xt.lit        0x0000000000001348       0x18 /opt/esp-open-sdk/sdk/lib/libwpa.a(wpa_main.o)
                                         0x48 (size before relaxing)
 .xt.lit        0x0000000000001360        0x0 /opt/esp-open-sdk/sdk/lib/libwpa.a(wpas_glue.o)
                                         0x10 (size before relaxing)
 .xt.lit        0x0000000000001360        0x0 /opt/esp-open-sdk/sdk/lib/libwpa.a(aes-wrap.o)
                                          0x8 (size before relaxing)
 .xt.lit        0x0000000000001360       0x10 /opt/esp-open-sdk/sdk/lib/libwpa.a(aes-internal-enc.o)
                                         0x18 (size before relaxing)
 .xt.lit        0x0000000000001370        0x8 /opt/esp-open-sdk/sdk/lib/libwpa.a(aes-internal.o)
 .xt.lit        0x0000000000001378        0x8 /opt/esp-open-sdk/sdk/lib/libjson.a(jsontree.o)
                                         0x18 (size before relaxing)
 .xt.lit        0x0000000000001380        0x8 /opt/esp-open-sdk/sdk/lib/libgcc.a(_mulsf3.o)
 .xt.lit        0x0000000000001388        0x0 /opt/esp-open-sdk/sdk/lib/libgcc.a(_divsf3.o)
                                          0x8 (size before relaxing)
 .xt.lit        0x0000000000001388        0x0 /opt/esp-open-sdk/sdk/lib/libgcc.a(_fixsfsi.o)
                                          0x8 (size before relaxing)
 .xt.lit        0x0000000000001388        0x8 /opt/esp-open-sdk/sdk/lib/libnet80211.a(ieee80211_crypto_tkip.o)
                                         0x10 (size before relaxing)
 .xt.lit        0x0000000000001390        0x0 /opt/esp-open-sdk/sdk/lib/libnet80211.a(ieee80211_crypto_wep.o)
                                          0x8 (size before relaxing)

.comment        0x0000000000000000     0x1c13
 .comment       0x0000000000000000       0x55 /opt/esp-open-sdk/sdk/lib/libmain.a(app_main.o)
                                         0x56 (size before relaxing)
 .comment       0x0000000000000055       0x56 /opt/esp-open-sdk/sdk/lib/libmain.a(ets_timer.o)
                                         0x57 (size before relaxing)
 .comment       0x00000000000000ab       0x58 /opt/esp-open-sdk/sdk/lib/libmain.a(mem_manager.o)
                                         0x59 (size before relaxing)
 .comment       0x0000000000000103       0x56 /opt/esp-open-sdk/sdk/lib/libmain.a(spi_flash.o)
                                         0x57 (size before relaxing)
 .comment       0x0000000000000159       0x5b /opt/esp-open-sdk/sdk/lib/libmain.a(user_interface.o)
                                         0x5c (size before relaxing)
 .comment       0x00000000000001b4       0x3b /opt/esp-open-sdk/sdk/lib/libmain.a(user_rf_cal_sector_set.o)
                                         0x3c (size before relaxing)
 .comment       0x00000000000001ef       0x56 /opt/esp-open-sdk/sdk/lib/libmain.a(eagle_lib.o)
                                         0x57 (size before relaxing)
 .comment       0x0000000000000245       0x5a /opt/esp-open-sdk/sdk/lib/libmain.a(eagle_lwip_if.o)
                                         0x5b (size before relaxing)
 .comment       0x000000000000029f       0x3c build/app_app.a(user_main.o)
 .comment       0x000000000000029f       0x3c build/app_app.a(esp_nano_httpd.o)
 .comment       0x000000000000029f       0x3c build/app_app.a(nano_httpd_wifi_util.o)
 .comment       0x000000000000029f       0x3c /opt/esp-open-sdk/xtensa-lx106-elf/lib/gcc/xtensa-lx106-elf/4.8.5/../../../../xtensa-lx106-elf/lib/libc.a(lib_a-atoi.o)
 .comment       0x000000000000029f       0x3c /opt/esp-open-sdk/xtensa-lx106-elf/lib/gcc/xtensa-lx106-elf/4.8.5/../../../../xtensa-lx106-elf/lib/libc.a(lib_a-strchr.o)
 .comment       0x000000000000029f       0x3c /opt/esp-open-sdk/xtensa-lx106-elf/lib/gcc/xtensa-lx106-elf/4.8.5/../../../../xtensa-lx106-elf/lib/libc.a(lib_a-strstr.o)
 .comment       0x000000000000029f       0x3c /opt/esp-open-sdk/xtensa-lx106-elf/lib/gcc/xtensa-lx106-elf/4.8.5/../../../../xtensa-lx106-elf/lib/libc.a(lib_a-strtok.o)
 .comment       0x000000000000029f       0x3c /opt/esp-open-sdk/xtensa-lx106-elf/lib/gcc/xtensa-lx106-elf/4.8.5/../../../../xtensa-lx106-elf/lib/libc.a(lib_a-strtok_r.o)
 .comment       0x000000000000029f       0x3c /opt/esp-open-sdk/xtensa-lx106-elf/lib/gcc/xtensa-lx106-elf/4.8.5/../../../../xtensa-lx106-elf/lib/libc.a(lib_a-strtol.o)
 .comment       0x000000000000029f       0x3c /opt/esp-open-sdk/xtensa-lx106-elf/lib/gcc/xtensa-lx106-elf/4.8.5/../../../../xtensa-lx106-elf/lib/libc.a(lib_a-ctype_.o)
 .comment       0x000000000000029f       0x3c /opt/esp-open-sdk/xtensa-lx106-elf/lib/gcc/xtensa-lx106-elf/4.8.5/../../../../xtensa-lx106-elf/lib/libc.a(lib_a-impure.o)
 .comment       0x000000000000029f       0x56 /opt/esp-open-sdk/sdk/lib/libpp.a(if_hwctrl.o)
                                         0x57 (size before relaxing)
 .comment       0x00000000000002f5       0x51 /opt/esp-open-sdk/sdk/lib/libpp.a(lmac.o)
                                         0x52 (size before relaxing)
 .comment       0x0000000000000346       0x4f /opt/esp-open-sdk/sdk/lib/libpp.a(pm.o)
                                         0x50 (size before relaxing)
 .comment       0x0000000000000395       0x61 /opt/esp-open-sdk/sdk/lib/libpp.a(pm_for_bcn_only_mode.o)
                                         0x62 (size before relaxing)
 .comment       0x00000000000003f6       0x4f /opt/esp-open-sdk/sdk/lib/libpp.a(pp.o)
                                         0x50 (size before relaxing)
 .comment       0x0000000000000445       0x59 /opt/esp-open-sdk/sdk/lib/libpp.a(rate_control.o)
                                         0x5a (size before relaxing)
 .comment       0x000000000000049e       0x50 /opt/esp-open-sdk/sdk/lib/libpp.a(trc.o)
                                         0x51 (size before relaxing)
 .comment       0x00000000000004ee       0x51 /opt/esp-open-sdk/sdk/lib/libpp.a(wdev.o)
                                         0x52 (size before relaxing)
 .comment       0x000000000000053f       0x54 /opt/esp-open-sdk/sdk/lib/libpp.a(esf_buf.o)
                                         0x55 (size before relaxing)
 .comment       0x0000000000000593       0x41 /opt/esp-open-sdk/sdk/lib/libphy.a(phy.o)
 .comment       0x00000000000005d4       0x4d /opt/esp-open-sdk/sdk/lib/libphy.a(phy_chip_v6_ana.o)
 .comment       0x0000000000000621       0x49 /opt/esp-open-sdk/sdk/lib/libphy.a(phy_chip_v6.o)
 .comment       0x000000000000066a       0x4d /opt/esp-open-sdk/sdk/lib/libphy.a(phy_chip_v6_cal.o)
 .comment       0x00000000000006b7       0x50 /opt/esp-open-sdk/sdk/lib/libphy.a(phy_chip_v6_unused.o)
 .comment       0x0000000000000707       0x47 /opt/esp-open-sdk/sdk/lib/libphy.a(phy_sleep.o)
 .comment       0x000000000000074e       0x56 /opt/esp-open-sdk/sdk/lib/libnet80211.a(ieee80211.o)
                                         0x57 (size before relaxing)
 .comment       0x00000000000007a4       0x5d /opt/esp-open-sdk/sdk/lib/libnet80211.a(ieee80211_crypto.o)
                                         0x5e (size before relaxing)
 .comment       0x0000000000000801       0x5a /opt/esp-open-sdk/sdk/lib/libnet80211.a(ieee80211_ets.o)
                                         0x5b (size before relaxing)
 .comment       0x000000000000085b       0x5d /opt/esp-open-sdk/sdk/lib/libnet80211.a(ieee80211_hostap.o)
                                         0x5e (size before relaxing)
 .comment       0x00000000000008b8       0x59 /opt/esp-open-sdk/sdk/lib/libnet80211.a(ieee80211_ht.o)
                                         0x5a (size before relaxing)
 .comment       0x0000000000000911       0x5c /opt/esp-open-sdk/sdk/lib/libnet80211.a(ieee80211_input.o)
                                         0x5d (size before relaxing)
 .comment       0x000000000000096d       0x61 /opt/esp-open-sdk/sdk/lib/libnet80211.a(ieee80211_mesh_quick.o)
                                         0x62 (size before relaxing)
 .comment       0x00000000000009ce       0x5d /opt/esp-open-sdk/sdk/lib/libnet80211.a(ieee80211_output.o)
                                         0x5e (size before relaxing)
 .comment       0x0000000000000a2b       0x5a /opt/esp-open-sdk/sdk/lib/libnet80211.a(ieee80211_phy.o)
                                         0x5b (size before relaxing)
 .comment       0x0000000000000a85       0x5c /opt/esp-open-sdk/sdk/lib/libnet80211.a(ieee80211_power.o)
                                         0x5d (size before relaxing)
 .comment       0x0000000000000ae1       0x5c /opt/esp-open-sdk/sdk/lib/libnet80211.a(ieee80211_proto.o)
                                         0x5d (size before relaxing)
 .comment       0x0000000000000b3d       0x60 /opt/esp-open-sdk/sdk/lib/libnet80211.a(ieee80211_regdomain.o)
                                         0x61 (size before relaxing)
 .comment       0x0000000000000b9d       0x5b /opt/esp-open-sdk/sdk/lib/libnet80211.a(ieee80211_rfid.o)
                                         0x5c (size before relaxing)
 .comment       0x0000000000000bf8       0x5b /opt/esp-open-sdk/sdk/lib/libnet80211.a(ieee80211_scan.o)
                                         0x5c (size before relaxing)
 .comment       0x0000000000000c53       0x5a /opt/esp-open-sdk/sdk/lib/libnet80211.a(ieee80211_sta.o)
                                         0x5b (size before relaxing)
 .comment       0x0000000000000cad       0x53 /opt/esp-open-sdk/sdk/lib/libnet80211.a(wl_chm.o)
                                         0x54 (size before relaxing)
 .comment       0x0000000000000d00       0x53 /opt/esp-open-sdk/sdk/lib/libnet80211.a(wl_cnx.o)
                                         0x54 (size before relaxing)
 .comment       0x0000000000000d53       0x5d /opt/esp-open-sdk/sdk/lib/libnet80211.a(ieee80211_action.o)
                                         0x5e (size before relaxing)
 .comment       0x0000000000000db0       0x64 /opt/esp-open-sdk/sdk/lib/libnet80211.a(ieee80211_action_vendor.o)
                                         0x65 (size before relaxing)
 .comment       0x0000000000000e14       0x62 /opt/esp-open-sdk/sdk/lib/libnet80211.a(ieee80211_crypto_ccmp.o)
                                         0x63 (size before relaxing)
 .comment       0x0000000000000e76       0x60 /opt/esp-open-sdk/sdk/lib/libnet80211.a(ieee80211_ie_vendor.o)
                                         0x61 (size before relaxing)
 .comment       0x0000000000000ed6       0x51 /opt/esp-open-sdk/sdk/lib/liblwip.a(dhcp.o)
                                         0x52 (size before relaxing)
 .comment       0x0000000000000f27       0x57 /opt/esp-open-sdk/sdk/lib/liblwip.a(dhcpserver.o)
                                         0x58 (size before relaxing)
 .comment       0x0000000000000f7e       0x50 /opt/esp-open-sdk/sdk/lib/liblwip.a(dns.o)
                                         0x51 (size before relaxing)
 .comment       0x0000000000000fce       0x54 /opt/esp-open-sdk/sdk/lib/liblwip.a(espconn.o)
                                         0x55 (size before relaxing)
 .comment       0x0000000000001022       0x58 /opt/esp-open-sdk/sdk/lib/liblwip.a(espconn_tcp.o)
                                         0x59 (size before relaxing)
 .comment       0x000000000000107a       0x58 /opt/esp-open-sdk/sdk/lib/liblwip.a(espconn_udp.o)
                                         0x59 (size before relaxing)
 .comment       0x00000000000010d2       0x53 /opt/esp-open-sdk/sdk/lib/liblwip.a(etharp.o)
                                         0x54 (size before relaxing)
 .comment       0x0000000000001125       0x51 /opt/esp-open-sdk/sdk/lib/liblwip.a(igmp.o)
                                         0x52 (size before relaxing)
 .comment       0x0000000000001176       0x58 /opt/esp-open-sdk/sdk/lib/liblwip.a(inet_chksum.o)
                                         0x59 (size before relaxing)
 .comment       0x00000000000011ce       0x51 /opt/esp-open-sdk/sdk/lib/liblwip.a(init.o)
                                         0x52 (size before relaxing)
 .comment       0x000000000000121f       0x54 /opt/esp-open-sdk/sdk/lib/liblwip.a(ip_addr.o)
                                         0x55 (size before relaxing)
 .comment       0x0000000000001273       0x4f /opt/esp-open-sdk/sdk/lib/liblwip.a(ip.o)
                                         0x50 (size before relaxing)
 .comment       0x00000000000012c2       0x51 /opt/esp-open-sdk/sdk/lib/liblwip.a(memp.o)
                                         0x52 (size before relaxing)
 .comment       0x0000000000001313       0x52 /opt/esp-open-sdk/sdk/lib/liblwip.a(netif.o)
                                         0x53 (size before relaxing)
 .comment       0x0000000000001365       0x51 /opt/esp-open-sdk/sdk/lib/liblwip.a(pbuf.o)
                                         0x52 (size before relaxing)
 .comment       0x00000000000013b6       0x50 /opt/esp-open-sdk/sdk/lib/liblwip.a(raw.o)
                                         0x51 (size before relaxing)
 .comment       0x0000000000001406       0x53 /opt/esp-open-sdk/sdk/lib/liblwip.a(tcp_in.o)
                                         0x54 (size before relaxing)
 .comment       0x0000000000001459       0x50 /opt/esp-open-sdk/sdk/lib/liblwip.a(tcp.o)
                                         0x51 (size before relaxing)
 .comment       0x00000000000014a9       0x54 /opt/esp-open-sdk/sdk/lib/liblwip.a(tcp_out.o)
                                         0x55 (size before relaxing)
 .comment       0x00000000000014fd       0x53 /opt/esp-open-sdk/sdk/lib/liblwip.a(timers.o)
                                         0x54 (size before relaxing)
 .comment       0x0000000000001550       0x50 /opt/esp-open-sdk/sdk/lib/liblwip.a(udp.o)
                                         0x51 (size before relaxing)
 .comment       0x00000000000015a0       0x58 /opt/esp-open-sdk/sdk/lib/liblwip.a(espconn_buf.o)
                                         0x59 (size before relaxing)
 .comment       0x00000000000015f8       0x51 /opt/esp-open-sdk/sdk/lib/liblwip.a(icmp.o)
                                         0x52 (size before relaxing)
 .comment       0x0000000000001649       0x56 /opt/esp-open-sdk/sdk/lib/libwpa.a(ap_config.o)
                                         0x57 (size before relaxing)
 .comment       0x000000000000169f       0x53 /opt/esp-open-sdk/sdk/lib/libwpa.a(common.o)
                                         0x54 (size before relaxing)
 .comment       0x00000000000016f2       0x56 /opt/esp-open-sdk/sdk/lib/libwpa.a(os_xtensa.o)
                                         0x57 (size before relaxing)
 .comment       0x0000000000001748       0x55 /opt/esp-open-sdk/sdk/lib/libwpa.a(wpa_auth.o)
                                         0x56 (size before relaxing)
 .comment       0x000000000000179d       0x58 /opt/esp-open-sdk/sdk/lib/libwpa.a(wpa_auth_ie.o)
                                         0x59 (size before relaxing)
 .comment       0x00000000000017f5       0x50 /opt/esp-open-sdk/sdk/lib/libwpa.a(wpa.o)
                                         0x51 (size before relaxing)
 .comment       0x0000000000001845       0x57 /opt/esp-open-sdk/sdk/lib/libwpa.a(wpa_common.o)
                                         0x58 (size before relaxing)
 .comment       0x000000000000189c       0x56 /opt/esp-open-sdk/sdk/lib/libwpa.a(wpa_debug.o)
                                         0x57 (size before relaxing)
 .comment       0x00000000000018f2       0x53 /opt/esp-open-sdk/sdk/lib/libwpa.a(wpa_ie.o)
                                         0x54 (size before relaxing)
 .comment       0x0000000000001945       0x55 /opt/esp-open-sdk/sdk/lib/libwpa.a(wpa_main.o)
                                         0x56 (size before relaxing)
 .comment       0x000000000000199a       0x56 /opt/esp-open-sdk/sdk/lib/libwpa.a(wpas_glue.o)
                                         0x57 (size before relaxing)
 .comment       0x00000000000019f0       0x55 /opt/esp-open-sdk/sdk/lib/libwpa.a(aes-wrap.o)
                                         0x56 (size before relaxing)
 .comment       0x0000000000001a45       0x5d /opt/esp-open-sdk/sdk/lib/libwpa.a(aes-internal-enc.o)
                                         0x5e (size before relaxing)
 .comment       0x0000000000001aa2       0x59 /opt/esp-open-sdk/sdk/lib/libwpa.a(aes-internal.o)
                                         0x5a (size before relaxing)
 .comment       0x0000000000001afb       0x55 /opt/esp-open-sdk/sdk/lib/libjson.a(jsontree.o)
                                         0x56 (size before relaxing)
 .comment       0x0000000000001b50       0x3c /opt/esp-open-sdk/xtensa-lx106-elf/lib/gcc/xtensa-lx106-elf/4.8.5/../../../../xtensa-lx106-elf/lib/libc.a(lib_a-memchr.o)
 .comment       0x0000000000001b50       0x62 /opt/esp-open-sdk/sdk/lib/libnet80211.a(ieee80211_crypto_tkip.o)
                                         0x63 (size before relaxing)
 .comment       0x0000000000001bb2       0x61 /opt/esp-open-sdk/sdk/lib/libnet80211.a(ieee80211_crypto_wep.o)
                                         0x62 (size before relaxing)

.debug_frame    0x0000000000000000      0x478
 .debug_frame   0x0000000000000000       0x78 build/app_app.a(user_main.o)
 .debug_frame   0x0000000000000078      0x1b4 build/app_app.a(esp_nano_httpd.o)
 .debug_frame   0x000000000000022c       0xd0 build/app_app.a(nano_httpd_wifi_util.o)
 .debug_frame   0x00000000000002fc       0x50 /opt/esp-open-sdk/xtensa-lx106-elf/lib/gcc/xtensa-lx106-elf/4.8.5/../../../../xtensa-lx106-elf/lib/libc.a(lib_a-atoi.o)
 .debug_frame   0x000000000000034c       0x20 /opt/esp-open-sdk/xtensa-lx106-elf/lib/gcc/xtensa-lx106-elf/4.8.5/../../../../xtensa-lx106-elf/lib/libc.a(lib_a-strchr.o)
 .debug_frame   0x000000000000036c       0x20 /opt/esp-open-sdk/xtensa-lx106-elf/lib/gcc/xtensa-lx106-elf/4.8.5/../../../../xtensa-lx106-elf/lib/libc.a(lib_a-strstr.o)
 .debug_frame   0x000000000000038c       0x30 /opt/esp-open-sdk/xtensa-lx106-elf/lib/gcc/xtensa-lx106-elf/4.8.5/../../../../xtensa-lx106-elf/lib/libc.a(lib_a-strtok.o)
 .debug_frame   0x00000000000003bc       0x40 /opt/esp-open-sdk/xtensa-lx106-elf/lib/gcc/xtensa-lx106-elf/4.8.5/../../../../xtensa-lx106-elf/lib/libc.a(lib_a-strtok_r.o)
 .debug_frame   0x00000000000003fc       0x5c /opt/esp-open-sdk/xtensa-lx106-elf/lib/gcc/xtensa-lx106-elf/4.8.5/../../../../xtensa-lx106-elf/lib/libc.a(lib_a-strtol.o)
 .debug_frame   0x0000000000000458       0x20 /opt/esp-open-sdk/xtensa-lx106-elf/lib/gcc/xtensa-lx106-elf/4.8.5/../../../../xtensa-lx106-elf/lib/libc.a(lib_a-memchr.o)

.debug_info     0x0000000000000000     0x6225
 .debug_info    0x0000000000000000      0x95d build/app_app.a(user_main.o)
 .debug_info    0x000000000000095d     0x155c build/app_app.a(esp_nano_httpd.o)
 .debug_info    0x0000000000001eb9     0x11da build/app_app.a(nano_httpd_wifi_util.o)
 .debug_info    0x0000000000003093      0x93d /opt/esp-open-sdk/xtensa-lx106-elf/lib/gcc/xtensa-lx106-elf/4.8.5/../../../../xtensa-lx106-elf/lib/libc.a(lib_a-atoi.o)
 .debug_info    0x00000000000039d0       0xf7 /opt/esp-open-sdk/xtensa-lx106-elf/lib/gcc/xtensa-lx106-elf/4.8.5/../../../../xtensa-lx106-elf/lib/libc.a(lib_a-memcpy.o)
 .debug_info    0x0000000000003ac7       0xf7 /opt/esp-open-sdk/xtensa-lx106-elf/lib/gcc/xtensa-lx106-elf/4.8.5/../../../../xtensa-lx106-elf/lib/libc.a(lib_a-memset.o)
 .debug_info    0x0000000000003bbe       0xdf /opt/esp-open-sdk/xtensa-lx106-elf/lib/gcc/xtensa-lx106-elf/4.8.5/../../../../xtensa-lx106-elf/lib/libc.a(lib_a-strchr.o)
 .debug_info    0x0000000000003c9d       0xf7 /opt/esp-open-sdk/xtensa-lx106-elf/lib/gcc/xtensa-lx106-elf/4.8.5/../../../../xtensa-lx106-elf/lib/libc.a(lib_a-strcmp.o)
 .debug_info    0x0000000000003d94       0xf7 /opt/esp-open-sdk/xtensa-lx106-elf/lib/gcc/xtensa-lx106-elf/4.8.5/../../../../xtensa-lx106-elf/lib/libc.a(lib_a-strlen.o)
 .debug_info    0x0000000000003e8b       0xdd /opt/esp-open-sdk/xtensa-lx106-elf/lib/gcc/xtensa-lx106-elf/4.8.5/../../../../xtensa-lx106-elf/lib/libc.a(lib_a-strstr.o)
 .debug_info    0x0000000000003f68      0x8e7 /opt/esp-open-sdk/xtensa-lx106-elf/lib/gcc/xtensa-lx106-elf/4.8.5/../../../../xtensa-lx106-elf/lib/libc.a(lib_a-strtok.o)
 .debug_info    0x000000000000484f      0x180 /opt/esp-open-sdk/xtensa-lx106-elf/lib/gcc/xtensa-lx106-elf/4.8.5/../../../../xtensa-lx106-elf/lib/libc.a(lib_a-strtok_r.o)
 .debug_info    0x00000000000049cf      0x9a5 /opt/esp-open-sdk/xtensa-lx106-elf/lib/gcc/xtensa-lx106-elf/4.8.5/../../../../xtensa-lx106-elf/lib/libc.a(lib_a-strtol.o)
 .debug_info    0x0000000000005374       0x6b /opt/esp-open-sdk/xtensa-lx106-elf/lib/gcc/xtensa-lx106-elf/4.8.5/../../../../xtensa-lx106-elf/lib/libc.a(lib_a-ctype_.o)
 .debug_info    0x00000000000053df      0x890 /opt/esp-open-sdk/xtensa-lx106-elf/lib/gcc/xtensa-lx106-elf/4.8.5/../../../../xtensa-lx106-elf/lib/libc.a(lib_a-impure.o)
 .debug_info    0x0000000000005c6f       0xf4 /opt/esp-open-sdk/xtensa-lx106-elf/lib/gcc/xtensa-lx106-elf/4.8.5/../../../../xtensa-lx106-elf/lib/libc.a(lib_a-memchr.o)
 .debug_info    0x0000000000005d63       0xf3 /opt/esp-open-sdk/sdk/lib/libgcc.a(_modsi3.o)
 .debug_info    0x0000000000005e56       0xf3 /opt/esp-open-sdk/sdk/lib/libgcc.a(_ashrdi3.o)
 .debug_info    0x0000000000005f49       0xf4 /opt/esp-open-sdk/sdk/lib/libgcc.a(_mulsf3.o)
 .debug_info    0x000000000000603d       0xf4 /opt/esp-open-sdk/sdk/lib/libgcc.a(_divsf3.o)
 .debug_info    0x0000000000006131       0xf4 /opt/esp-open-sdk/sdk/lib/libgcc.a(_fixsfsi.o)

.debug_abbrev   0x0000000000000000     0x1420
 .debug_abbrev  0x0000000000000000      0x26f build/app_app.a(user_main.o)
 .debug_abbrev  0x000000000000026f      0x3a6 build/app_app.a(esp_nano_httpd.o)
 .debug_abbrev  0x0000000000000615      0x341 build/app_app.a(nano_httpd_wifi_util.o)
 .debug_abbrev  0x0000000000000956      0x1cc /opt/esp-open-sdk/xtensa-lx106-elf/lib/gcc/xtensa-lx106-elf/4.8.5/../../../../xtensa-lx106-elf/lib/libc.a(lib_a-atoi.o)
 .debug_abbrev  0x0000000000000b22       0x14 /opt/esp-open-sdk/xtensa-lx106-elf/lib/gcc/xtensa-lx106-elf/4.8.5/../../../../xtensa-lx106-elf/lib/libc.a(lib_a-memcpy.o)
 .debug_abbrev  0x0000000000000b36       0x14 /opt/esp-open-sdk/xtensa-lx106-elf/lib/gcc/xtensa-lx106-elf/4.8.5/../../../../xtensa-lx106-elf/lib/libc.a(lib_a-memset.o)
 .debug_abbrev  0x0000000000000b4a       0x81 /opt/esp-open-sdk/xtensa-lx106-elf/lib/gcc/xtensa-lx106-elf/4.8.5/../../../../xtensa-lx106-elf/lib/libc.a(lib_a-strchr.o)
 .debug_abbrev  0x0000000000000bcb       0x14 /opt/esp-open-sdk/xtensa-lx106-elf/lib/gcc/xtensa-lx106-elf/4.8.5/../../../../xtensa-lx106-elf/lib/libc.a(lib_a-strcmp.o)
 .debug_abbrev  0x0000000000000bdf       0x14 /opt/esp-open-sdk/xtensa-lx106-elf/lib/gcc/xtensa-lx106-elf/4.8.5/../../../../xtensa-lx106-elf/lib/libc.a(lib_a-strlen.o)
 .debug_abbrev  0x0000000000000bf3       0x86 /opt/esp-open-sdk/xtensa-lx106-elf/lib/gcc/xtensa-lx106-elf/4.8.5/../../../../xtensa-lx106-elf/lib/libc.a(lib_a-strstr.o)
 .debug_abbrev  0x0000000000000c79      0x1d9 /opt/esp-open-sdk/xtensa-lx106-elf/lib/gcc/xtensa-lx106-elf/4.8.5/../../../../xtensa-lx106-elf/lib/libc.a(lib_a-strtok.o)
 .debug_abbrev  0x0000000000000e52       0xe8 /opt/esp-open-sdk/xtensa-lx106-elf/lib/gcc/xtensa-lx106-elf/4.8.5/../../../../xtensa-lx106-elf/lib/libc.a(lib_a-strtok_r.o)
 .debug_abbrev  0x0000000000000f3a      0x20f /opt/esp-open-sdk/xtensa-lx106-elf/lib/gcc/xtensa-lx106-elf/4.8.5/../../../../xtensa-lx106-elf/lib/libc.a(lib_a-strtol.o)
 .debug_abbrev  0x0000000000001149       0x4c /opt/esp-open-sdk/xtensa-lx106-elf/lib/gcc/xtensa-lx106-elf/4.8.5/../../../../xtensa-lx106-elf/lib/libc.a(lib_a-ctype_.o)
 .debug_abbrev  0x0000000000001195      0x17e /opt/esp-open-sdk/xtensa-lx106-elf/lib/gcc/xtensa-lx106-elf/4.8.5/../../../../xtensa-lx106-elf/lib/libc.a(lib_a-impure.o)
 .debug_abbrev  0x0000000000001313       0xa9 /opt/esp-open-sdk/xtensa-lx106-elf/lib/gcc/xtensa-lx106-elf/4.8.5/../../../../xtensa-lx106-elf/lib/libc.a(lib_a-memchr.o)
 .debug_abbrev  0x00000000000013bc       0x14 /opt/esp-open-sdk/sdk/lib/libgcc.a(_modsi3.o)
 .debug_abbrev  0x00000000000013d0       0x14 /opt/esp-open-sdk/sdk/lib/libgcc.a(_ashrdi3.o)
 .debug_abbrev  0x00000000000013e4       0x14 /opt/esp-open-sdk/sdk/lib/libgcc.a(_mulsf3.o)
 .debug_abbrev  0x00000000000013f8       0x14 /opt/esp-open-sdk/sdk/lib/libgcc.a(_divsf3.o)
 .debug_abbrev  0x000000000000140c       0x14 /opt/esp-open-sdk/sdk/lib/libgcc.a(_fixsfsi.o)

.debug_loc      0x0000000000000000     0x11a0
 .debug_loc     0x0000000000000000      0x124 build/app_app.a(user_main.o)
 .debug_loc     0x0000000000000124      0x6e3 build/app_app.a(esp_nano_httpd.o)
 .debug_loc     0x0000000000000807      0x277 build/app_app.a(nano_httpd_wifi_util.o)
 .debug_loc     0x0000000000000a7e       0x63 /opt/esp-open-sdk/xtensa-lx106-elf/lib/gcc/xtensa-lx106-elf/4.8.5/../../../../xtensa-lx106-elf/lib/libc.a(lib_a-atoi.o)
 .debug_loc     0x0000000000000ae1       0x55 /opt/esp-open-sdk/xtensa-lx106-elf/lib/gcc/xtensa-lx106-elf/4.8.5/../../../../xtensa-lx106-elf/lib/libc.a(lib_a-strchr.o)
 .debug_loc     0x0000000000000b36       0x6b /opt/esp-open-sdk/xtensa-lx106-elf/lib/gcc/xtensa-lx106-elf/4.8.5/../../../../xtensa-lx106-elf/lib/libc.a(lib_a-strstr.o)
 .debug_loc     0x0000000000000ba1       0x42 /opt/esp-open-sdk/xtensa-lx106-elf/lib/gcc/xtensa-lx106-elf/4.8.5/../../../../xtensa-lx106-elf/lib/libc.a(lib_a-strtok.o)
 .debug_loc     0x0000000000000be3      0x1aa /opt/esp-open-sdk/xtensa-lx106-elf/lib/gcc/xtensa-lx106-elf/4.8.5/../../../../xtensa-lx106-elf/lib/libc.a(lib_a-strtok_r.o)
 .debug_loc     0x0000000000000d8d      0x38d /opt/esp-open-sdk/xtensa-lx106-elf/lib/gcc/xtensa-lx106-elf/4.8.5/../../../../xtensa-lx106-elf/lib/libc.a(lib_a-strtol.o)
 .debug_loc     0x000000000000111a       0x86 /opt/esp-open-sdk/xtensa-lx106-elf/lib/gcc/xtensa-lx106-elf/4.8.5/../../../../xtensa-lx106-elf/lib/libc.a(lib_a-memchr.o)

.debug_aranges  0x0000000000000000      0x310
 .debug_aranges
                0x0000000000000000       0x30 build/app_app.a(user_main.o)
 .debug_aranges
                0x0000000000000030       0x70 build/app_app.a(esp_nano_httpd.o)
 .debug_aranges
                0x00000000000000a0       0x40 build/app_app.a(nano_httpd_wifi_util.o)
 .debug_aranges
                0x00000000000000e0       0x20 /opt/esp-open-sdk/xtensa-lx106-elf/lib/gcc/xtensa-lx106-elf/4.8.5/../../../../xtensa-lx106-elf/lib/libc.a(lib_a-atoi.o)
 .debug_aranges
                0x0000000000000100       0x20 /opt/esp-open-sdk/xtensa-lx106-elf/lib/gcc/xtensa-lx106-elf/4.8.5/../../../../xtensa-lx106-elf/lib/libc.a(lib_a-memcpy.o)
 .debug_aranges
                0x0000000000000120       0x20 /opt/esp-open-sdk/xtensa-lx106-elf/lib/gcc/xtensa-lx106-elf/4.8.5/../../../../xtensa-lx106-elf/lib/libc.a(lib_a-memset.o)
 .debug_aranges
                0x0000000000000140       0x20 /opt/esp-open-sdk/xtensa-lx106-elf/lib/gcc/xtensa-lx106-elf/4.8.5/../../../../xtensa-lx106-elf/lib/libc.a(lib_a-strchr.o)
 .debug_aranges
                0x0000000000000160       0x20 /opt/esp-open-sdk/xtensa-lx106-elf/lib/gcc/xtensa-lx106-elf/4.8.5/../../../../xtensa-lx106-elf/lib/libc.a(lib_a-strcmp.o)
 .debug_aranges
                0x0000000000000180       0x20 /opt/esp-open-sdk/xtensa-lx106-elf/lib/gcc/xtensa-lx106-elf/4.8.5/../../../../xtensa-lx106-elf/lib/libc.a(lib_a-strlen.o)
 .debug_aranges
                0x00000000000001a0       0x20 /opt/esp-open-sdk/xtensa-lx106-elf/lib/gcc/xtensa-lx106-elf/4.8.5/../../../../xtensa-lx106-elf/lib/libc.a(lib_a-strstr.o)
 .debug_aranges
                0x00000000000001c0       0x20 /opt/esp-open-sdk/xtensa-lx106-elf/lib/gcc/xtensa-lx106-elf/4.8.5/../../../../xtensa-lx106-elf/lib/libc.a(lib_a-strtok.o)
 .debug_aranges
                0x00000000000001e0       0x20 /opt/esp-open-sdk/xtensa-lx106-elf/lib/gcc/xtensa-lx106-elf/4.8.5/../../../../xtensa-lx106-elf/lib/libc.a(lib_a-strtok_r.o)
 .debug_aranges
                0x0000000000000200       0x20 /opt/esp-open-sdk/xtensa-lx106-elf/lib/gcc/xtensa-lx106-elf/4.8.5/../../../../xtensa-lx106-elf/lib/libc.a(lib_a-strtol.o)
 .debug_aranges
                0x0000000000000220       0x18 /opt/esp-open-sdk/xtensa-lx106-elf/lib/gcc/xtensa-lx106-elf/4.8.5/../../../../xtensa-lx106-elf/lib/libc.a(lib_a-ctype_.o)
 .debug_aranges
                0x0000000000000238       0x18 /opt/esp-open-sdk/xtensa-lx106-elf/lib/gcc/xtensa-lx106-elf/4.8.5/../../../../xtensa-lx106-elf/lib/libc.a(lib_a-impure.o)
 .debug_aranges
                0x0000000000000250       0x20 /opt/esp-open-sdk/xtensa-lx106-elf/lib/gcc/xtensa-lx106-elf/4.8.5/../../../../xtensa-lx106-elf/lib/libc.a(lib_a-memchr.o)
 .debug_aranges
                0x0000000000000270       0x20 /opt/esp-open-sdk/sdk/lib/libgcc.a(_modsi3.o)
 .debug_aranges
                0x0000000000000290       0x20 /opt/esp-open-sdk/sdk/lib/libgcc.a(_ashrdi3.o)
 .debug_aranges
                0x00000000000002b0       0x20 /opt/esp-open-sdk/sdk/lib/libgcc.a(_mulsf3.o)
 .debug_aranges
                0x00000000000002d0       0x20 /opt/esp-open-sdk/sdk/lib/libgcc.a(_divsf3.o)
 .debug_aranges
                0x00000000000002f0       0x20 /opt/esp-open-sdk/sdk/lib/libgcc.a(_fixsfsi.o)

.debug_ranges   0x0000000000000000       0xe8
 .debug_ranges  0x0000000000000000       0x20 build/app_app.a(user_main.o)
 .debug_ranges  0x0000000000000020       0x80 build/app_app.a(esp_nano_httpd.o)
 .debug_ranges  0x00000000000000a0       0x48 build/app_app.a(nano_httpd_wifi_util.o)

.debug_line     0x0000000000000000     0x2e88
 .debug_line    0x0000000000000000      0x22f build/app_app.a(user_main.o)
 .debug_line    0x000000000000022f      0x66f build/app_app.a(esp_nano_httpd.o)
 .debug_line    0x000000000000089e      0x464 build/app_app.a(nano_httpd_wifi_util.o)
 .debug_line    0x0000000000000d02      0x1f4 /opt/esp-open-sdk/xtensa-lx106-elf/lib/gcc/xtensa-lx106-elf/4.8.5/../../../../xtensa-lx106-elf/lib/libc.a(lib_a-atoi.o)
 .debug_line    0x0000000000000ef6      0x37a /opt/esp-open-sdk/xtensa-lx106-elf/lib/gcc/xtensa-lx106-elf/4.8.5/../../../../xtensa-lx106-elf/lib/libc.a(lib_a-memcpy.o)
 .debug_line    0x0000000000001270      0x19f /opt/esp-open-sdk/xtensa-lx106-elf/lib/gcc/xtensa-lx106-elf/4.8.5/../../../../xtensa-lx106-elf/lib/libc.a(lib_a-memset.o)
 .debug_line    0x000000000000140f      0x114 /opt/esp-open-sdk/xtensa-lx106-elf/lib/gcc/xtensa-lx106-elf/4.8.5/../../../../xtensa-lx106-elf/lib/libc.a(lib_a-strchr.o)
 .debug_line    0x0000000000001523      0x2a9 /opt/esp-open-sdk/xtensa-lx106-elf/lib/gcc/xtensa-lx106-elf/4.8.5/../../../../xtensa-lx106-elf/lib/libc.a(lib_a-strcmp.o)
 .debug_line    0x00000000000017cc      0x151 /opt/esp-open-sdk/xtensa-lx106-elf/lib/gcc/xtensa-lx106-elf/4.8.5/../../../../xtensa-lx106-elf/lib/libc.a(lib_a-strlen.o)
 .debug_line    0x000000000000191d      0x19b /opt/esp-open-sdk/xtensa-lx106-elf/lib/gcc/xtensa-lx106-elf/4.8.5/../../../../xtensa-lx106-elf/lib/libc.a(lib_a-strstr.o)
 .debug_line    0x0000000000001ab8      0x1e4 /opt/esp-open-sdk/xtensa-lx106-elf/lib/gcc/xtensa-lx106-elf/4.8.5/../../../../xtensa-lx106-elf/lib/libc.a(lib_a-strtok.o)
 .debug_line    0x0000000000001c9c      0x194 /opt/esp-open-sdk/xtensa-lx106-elf/lib/gcc/xtensa-lx106-elf/4.8.5/../../../../xtensa-lx106-elf/lib/libc.a(lib_a-strtok_r.o)
 .debug_line    0x0000000000001e30      0x38f /opt/esp-open-sdk/xtensa-lx106-elf/lib/gcc/xtensa-lx106-elf/4.8.5/../../../../xtensa-lx106-elf/lib/libc.a(lib_a-strtol.o)
 .debug_line    0x00000000000021bf       0x73 /opt/esp-open-sdk/xtensa-lx106-elf/lib/gcc/xtensa-lx106-elf/4.8.5/../../../../xtensa-lx106-elf/lib/libc.a(lib_a-ctype_.o)
 .debug_line    0x0000000000002232      0x157 /opt/esp-open-sdk/xtensa-lx106-elf/lib/gcc/xtensa-lx106-elf/4.8.5/../../../../xtensa-lx106-elf/lib/libc.a(lib_a-impure.o)
 .debug_line    0x0000000000002389      0x17e /opt/esp-open-sdk/xtensa-lx106-elf/lib/gcc/xtensa-lx106-elf/4.8.5/../../../../xtensa-lx106-elf/lib/libc.a(lib_a-memchr.o)
 .debug_line    0x0000000000002507      0x11a /opt/esp-open-sdk/sdk/lib/libgcc.a(_modsi3.o)
 .debug_line    0x0000000000002621       0xba /opt/esp-open-sdk/sdk/lib/libgcc.a(_ashrdi3.o)
 .debug_line    0x00000000000026db      0x37f /opt/esp-open-sdk/sdk/lib/libgcc.a(_mulsf3.o)
 .debug_line    0x0000000000002a5a      0x319 /opt/esp-open-sdk/sdk/lib/libgcc.a(_divsf3.o)
 .debug_line    0x0000000000002d73      0x115 /opt/esp-open-sdk/sdk/lib/libgcc.a(_fixsfsi.o)

.debug_str      0x0000000000000000     0x13e6
 .debug_str     0x0000000000000000      0x4e2 build/app_app.a(user_main.o)
                                        0x583 (size before relaxing)
 .debug_str     0x00000000000004e2      0x3e7 build/app_app.a(esp_nano_httpd.o)
                                        0x8f2 (size before relaxing)
 .debug_str     0x00000000000008c9      0x3a9 build/app_app.a(nano_httpd_wifi_util.o)
                                        0x91e (size before relaxing)
 .debug_str     0x0000000000000c72      0x42a /opt/esp-open-sdk/xtensa-lx106-elf/lib/gcc/xtensa-lx106-elf/4.8.5/../../../../xtensa-lx106-elf/lib/libc.a(lib_a-atoi.o)
                                        0x4e7 (size before relaxing)
 .debug_str     0x000000000000109c       0x53 /opt/esp-open-sdk/xtensa-lx106-elf/lib/gcc/xtensa-lx106-elf/4.8.5/../../../../xtensa-lx106-elf/lib/libc.a(lib_a-strchr.o)
                                        0x11c (size before relaxing)
 .debug_str     0x00000000000010ef       0x6b /opt/esp-open-sdk/xtensa-lx106-elf/lib/gcc/xtensa-lx106-elf/4.8.5/../../../../xtensa-lx106-elf/lib/libc.a(lib_a-strstr.o)
                                        0x134 (size before relaxing)
 .debug_str     0x000000000000115a       0x5e /opt/esp-open-sdk/xtensa-lx106-elf/lib/gcc/xtensa-lx106-elf/4.8.5/../../../../xtensa-lx106-elf/lib/libc.a(lib_a-strtok.o)
                                        0x4ef (size before relaxing)
 .debug_str     0x00000000000011b8       0x79 /opt/esp-open-sdk/xtensa-lx106-elf/lib/gcc/xtensa-lx106-elf/4.8.5/../../../../xtensa-lx106-elf/lib/libc.a(lib_a-strtok_r.o)
                                        0x155 (size before relaxing)
 .debug_str     0x0000000000001231       0x80 /opt/esp-open-sdk/xtensa-lx106-elf/lib/gcc/xtensa-lx106-elf/4.8.5/../../../../xtensa-lx106-elf/lib/libc.a(lib_a-strtol.o)
                                        0x51a (size before relaxing)
 .debug_str     0x00000000000012b1       0x5a /opt/esp-open-sdk/xtensa-lx106-elf/lib/gcc/xtensa-lx106-elf/4.8.5/../../../../xtensa-lx106-elf/lib/libc.a(lib_a-ctype_.o)
                                         0xa6 (size before relaxing)
 .debug_str     0x000000000000130b       0x71 /opt/esp-open-sdk/xtensa-lx106-elf/lib/gcc/xtensa-lx106-elf/4.8.5/../../../../xtensa-lx106-elf/lib/libc.a(lib_a-impure.o)
                                        0x4f5 (size before relaxing)
 .debug_str     0x000000000000137c       0x6a /opt/esp-open-sdk/xtensa-lx106-elf/lib/gcc/xtensa-lx106-elf/4.8.5/../../../../xtensa-lx106-elf/lib/libc.a(lib_a-memchr.o)
                                        0x133 (size before relaxing)
